

Microchip MPLAB XC8 Assembler V2.41 build 20230208172133 
                                                                                               Thu May 25 19:07:10 2023

Microchip MPLAB XC8 C Compiler v2.41 (Free license) build 20230208172133 Og1 
     1                           	processor	16F883
     2                           	pagewidth 120
     3                           	opt	flic
     4                           	psect	idataBANK0,global,class=CODE,delta=2,noexec
     5                           	psect	stringtext,global,reloc=256,class=STRCODE,delta=2,noexec
     6                           	psect	cinit,global,class=CODE,merge=1,delta=2
     7                           	psect	bssBANK0,global,class=BANK0,space=1,delta=1,noexec
     8                           	psect	dataBANK0,global,class=BANK0,space=1,delta=1,noexec
     9                           	psect	bssBANK1,global,class=BANK1,space=1,delta=1,noexec
    10                           	psect	bssBANK2,global,class=BANK2,space=1,delta=1,noexec
    11                           	psect	clrtext,global,class=CODE,delta=2
    12                           	psect	cstackCOMMON,global,class=COMMON,space=1,delta=1,noexec
    13                           	psect	cstackBANK0,global,class=BANK0,space=1,delta=1,noexec
    14                           	psect	maintext,global,class=CODE,split=1,delta=2
    15                           	psect	text1,local,class=CODE,merge=1,delta=2
    16                           	psect	text2,local,class=CODE,merge=1,delta=2
    17                           	psect	text3,local,class=CODE,merge=1,delta=2
    18                           	psect	text4,local,class=CODE,merge=1,delta=2
    19                           	psect	text5,local,class=CODE,merge=1,delta=2
    20                           	psect	text6,local,class=CODE,merge=1,delta=2
    21                           	psect	text7,local,class=CODE,merge=1,delta=2
    22                           	psect	text8,local,class=CODE,merge=1,delta=2
    23                           	psect	text9,local,class=CODE,merge=1,delta=2
    24                           	psect	text10,local,class=CODE,merge=1,delta=2
    25                           	psect	text11,local,class=CODE,merge=1,delta=2
    26                           	psect	text12,local,class=CODE,merge=1,delta=2
    27                           	psect	text13,local,class=CODE,merge=1,delta=2
    28                           	psect	text14,local,class=CODE,merge=1,delta=2
    29                           	psect	text15,local,class=CODE,merge=1,delta=2
    30                           	psect	text16,local,class=CODE,merge=1,delta=2
    31                           	psect	text17,local,class=CODE,merge=1,delta=2
    32                           	psect	text18,local,class=CODE,merge=1,delta=2
    33                           	psect	text19,local,class=CODE,merge=1,delta=2
    34                           	psect	text20,local,class=CODE,merge=1,delta=2
    35                           	psect	text21,local,class=CODE,merge=1,delta=2
    36                           	psect	text22,local,class=CODE,merge=1,delta=2
    37                           	psect	text23,local,class=CODE,merge=1,delta=2
    38                           	psect	text24,local,class=CODE,merge=1,delta=2
    39                           	psect	text25,local,class=CODE,merge=1,delta=2
    40                           	psect	text26,local,class=CODE,merge=1,delta=2
    41                           	psect	text27,local,class=CODE,merge=1,delta=2
    42                           	psect	text28,local,class=CODE,merge=1,delta=2,group=1
    43                           	psect	text29,local,class=CODE,merge=1,delta=2,group=2
    44                           	psect	text30,local,class=CODE,merge=1,delta=2,group=2
    45                           	psect	text31,local,class=CODE,merge=1,delta=2
    46                           	psect	text32,local,class=CODE,merge=1,delta=2
    47                           	psect	text33,local,class=CODE,merge=1,delta=2,group=2
    48                           	psect	text34,local,class=CODE,merge=1,delta=2
    49                           	psect	text35,local,class=CODE,merge=1,delta=2
    50                           	psect	text36,local,class=CODE,merge=1,delta=2
    51                           	psect	text37,local,class=CODE,merge=1,delta=2
    52                           	psect	idloc,global,abs,ovrld,class=IDLOC,space=5,delta=2,noexec
    53                           	psect	config,global,abs,ovrld,class=CONFIG,space=4,delta=2,noexec
    54                           	dabs	1,0x7E,2
    55     0000                     
    56                           ; Version 2.40
    57                           ; Generated 17/11/2021 GMT
    58                           ; 
    59                           ; Copyright © 2021, Microchip Technology Inc. and its subsidiaries ("Microchip")
    60                           ; All rights reserved.
    61                           ; 
    62                           ; This software is developed by Microchip Technology Inc. and its subsidiaries ("Microch
      +                          ip").
    63                           ; 
    64                           ; Redistribution and use in source and binary forms, with or without modification, are
    65                           ; permitted provided that the following conditions are met:
    66                           ; 
    67                           ;     1. Redistributions of source code must retain the above copyright notice, this lis
      +                          t of
    68                           ;        conditions and the following disclaimer.
    69                           ; 
    70                           ;     2. Redistributions in binary form must reproduce the above copyright notice, this 
      +                          list
    71                           ;        of conditions and the following disclaimer in the documentation and/or other
    72                           ;        materials provided with the distribution. Publication is not required when
    73                           ;        this file is used in an embedded application.
    74                           ; 
    75                           ;     3. Microchip's name may not be used to endorse or promote products derived from th
      +                          is
    76                           ;        software without specific prior written permission.
    77                           ; 
    78                           ; THIS SOFTWARE IS PROVIDED BY MICROCHIP "AS IS" AND ANY EXPRESS OR IMPLIED WARRANTIES,
    79                           ; INCLUDING, BUT NOT LIMITED TO, THE IMPLIED WARRANTIES OF MERCHANTABILITY AND FITNESS F
      +                          OR
    80                           ; PURPOSE ARE DISCLAIMED.  IN NO EVENT SHALL MICROCHIP BE LIABLE FOR ANY DIRECT, INDIREC
      +                          T,
    81                           ; INCIDENTAL, SPECIAL, EXEMPLARY, OR CONSEQUENTIAL DAMAGES (INCLUDING BUT NOT LIMITED TO
    82                           ; PROCUREMENT OF SUBSTITUTE GOODS OR SERVICES; LOSS OF USE, DATA OR PROFITS; OR BUSINESS
    83                           ; INTERRUPTION) HOWSOEVER CAUSED AND ON ANY THEORY OF LIABILITY, WHETHER IN CONTRACT, ST
      +                          RICT
    84                           ; LIABILITY, OR TORT (INCLUDING NEGLIGENCE OR OTHERWISE) ARISING IN ANY WAY OUT OF THE U
      +                          SE OF
    85                           ; THIS SOFTWARE, EVEN IF ADVISED OF THE POSSIBILITY OF SUCH DAMAGE.
    86                           ; 
    87                           ; 
    88                           ; Code-generator required, PIC16F883 Definitions
    89                           ; 
    90                           ; SFR Addresses
    91     0000                     	;# 
    92     0001                     	;# 
    93     0002                     	;# 
    94     0003                     	;# 
    95     0004                     	;# 
    96     0005                     	;# 
    97     0006                     	;# 
    98     0007                     	;# 
    99     0009                     	;# 
   100     000A                     	;# 
   101     000B                     	;# 
   102     000C                     	;# 
   103     000D                     	;# 
   104     000E                     	;# 
   105     000E                     	;# 
   106     000F                     	;# 
   107     0010                     	;# 
   108     0011                     	;# 
   109     0012                     	;# 
   110     0013                     	;# 
   111     0014                     	;# 
   112     0015                     	;# 
   113     0015                     	;# 
   114     0016                     	;# 
   115     0017                     	;# 
   116     0018                     	;# 
   117     0019                     	;# 
   118     001A                     	;# 
   119     001B                     	;# 
   120     001B                     	;# 
   121     001C                     	;# 
   122     001D                     	;# 
   123     001E                     	;# 
   124     001F                     	;# 
   125     0081                     	;# 
   126     0085                     	;# 
   127     0086                     	;# 
   128     0087                     	;# 
   129     0089                     	;# 
   130     008C                     	;# 
   131     008D                     	;# 
   132     008E                     	;# 
   133     008F                     	;# 
   134     0090                     	;# 
   135     0091                     	;# 
   136     0092                     	;# 
   137     0093                     	;# 
   138     0093                     	;# 
   139     0093                     	;# 
   140     0094                     	;# 
   141     0095                     	;# 
   142     0096                     	;# 
   143     0097                     	;# 
   144     0098                     	;# 
   145     0099                     	;# 
   146     009A                     	;# 
   147     009B                     	;# 
   148     009C                     	;# 
   149     009D                     	;# 
   150     009E                     	;# 
   151     009F                     	;# 
   152     0105                     	;# 
   153     0107                     	;# 
   154     0108                     	;# 
   155     0109                     	;# 
   156     010C                     	;# 
   157     010C                     	;# 
   158     010D                     	;# 
   159     010E                     	;# 
   160     010F                     	;# 
   161     0185                     	;# 
   162     0187                     	;# 
   163     0188                     	;# 
   164     0189                     	;# 
   165     018C                     	;# 
   166     018D                     	;# 
   167     0000                     	;# 
   168     0001                     	;# 
   169     0002                     	;# 
   170     0003                     	;# 
   171     0004                     	;# 
   172     0005                     	;# 
   173     0006                     	;# 
   174     0007                     	;# 
   175     0009                     	;# 
   176     000A                     	;# 
   177     000B                     	;# 
   178     000C                     	;# 
   179     000D                     	;# 
   180     000E                     	;# 
   181     000E                     	;# 
   182     000F                     	;# 
   183     0010                     	;# 
   184     0011                     	;# 
   185     0012                     	;# 
   186     0013                     	;# 
   187     0014                     	;# 
   188     0015                     	;# 
   189     0015                     	;# 
   190     0016                     	;# 
   191     0017                     	;# 
   192     0018                     	;# 
   193     0019                     	;# 
   194     001A                     	;# 
   195     001B                     	;# 
   196     001B                     	;# 
   197     001C                     	;# 
   198     001D                     	;# 
   199     001E                     	;# 
   200     001F                     	;# 
   201     0081                     	;# 
   202     0085                     	;# 
   203     0086                     	;# 
   204     0087                     	;# 
   205     0089                     	;# 
   206     008C                     	;# 
   207     008D                     	;# 
   208     008E                     	;# 
   209     008F                     	;# 
   210     0090                     	;# 
   211     0091                     	;# 
   212     0092                     	;# 
   213     0093                     	;# 
   214     0093                     	;# 
   215     0093                     	;# 
   216     0094                     	;# 
   217     0095                     	;# 
   218     0096                     	;# 
   219     0097                     	;# 
   220     0098                     	;# 
   221     0099                     	;# 
   222     009A                     	;# 
   223     009B                     	;# 
   224     009C                     	;# 
   225     009D                     	;# 
   226     009E                     	;# 
   227     009F                     	;# 
   228     0105                     	;# 
   229     0107                     	;# 
   230     0108                     	;# 
   231     0109                     	;# 
   232     010C                     	;# 
   233     010C                     	;# 
   234     010D                     	;# 
   235     010E                     	;# 
   236     010F                     	;# 
   237     0185                     	;# 
   238     0187                     	;# 
   239     0188                     	;# 
   240     0189                     	;# 
   241     018C                     	;# 
   242     018D                     	;# 
   243     0000                     	;# 
   244     0001                     	;# 
   245     0002                     	;# 
   246     0003                     	;# 
   247     0004                     	;# 
   248     0005                     	;# 
   249     0006                     	;# 
   250     0007                     	;# 
   251     0009                     	;# 
   252     000A                     	;# 
   253     000B                     	;# 
   254     000C                     	;# 
   255     000D                     	;# 
   256     000E                     	;# 
   257     000E                     	;# 
   258     000F                     	;# 
   259     0010                     	;# 
   260     0011                     	;# 
   261     0012                     	;# 
   262     0013                     	;# 
   263     0014                     	;# 
   264     0015                     	;# 
   265     0015                     	;# 
   266     0016                     	;# 
   267     0017                     	;# 
   268     0018                     	;# 
   269     0019                     	;# 
   270     001A                     	;# 
   271     001B                     	;# 
   272     001B                     	;# 
   273     001C                     	;# 
   274     001D                     	;# 
   275     001E                     	;# 
   276     001F                     	;# 
   277     0081                     	;# 
   278     0085                     	;# 
   279     0086                     	;# 
   280     0087                     	;# 
   281     0089                     	;# 
   282     008C                     	;# 
   283     008D                     	;# 
   284     008E                     	;# 
   285     008F                     	;# 
   286     0090                     	;# 
   287     0091                     	;# 
   288     0092                     	;# 
   289     0093                     	;# 
   290     0093                     	;# 
   291     0093                     	;# 
   292     0094                     	;# 
   293     0095                     	;# 
   294     0096                     	;# 
   295     0097                     	;# 
   296     0098                     	;# 
   297     0099                     	;# 
   298     009A                     	;# 
   299     009B                     	;# 
   300     009C                     	;# 
   301     009D                     	;# 
   302     009E                     	;# 
   303     009F                     	;# 
   304     0105                     	;# 
   305     0107                     	;# 
   306     0108                     	;# 
   307     0109                     	;# 
   308     010C                     	;# 
   309     010C                     	;# 
   310     010D                     	;# 
   311     010E                     	;# 
   312     010F                     	;# 
   313     0185                     	;# 
   314     0187                     	;# 
   315     0188                     	;# 
   316     0189                     	;# 
   317     018C                     	;# 
   318     018D                     	;# 
   319     0000                     	;# 
   320     0001                     	;# 
   321     0002                     	;# 
   322     0003                     	;# 
   323     0004                     	;# 
   324     0005                     	;# 
   325     0006                     	;# 
   326     0007                     	;# 
   327     0009                     	;# 
   328     000A                     	;# 
   329     000B                     	;# 
   330     000C                     	;# 
   331     000D                     	;# 
   332     000E                     	;# 
   333     000E                     	;# 
   334     000F                     	;# 
   335     0010                     	;# 
   336     0011                     	;# 
   337     0012                     	;# 
   338     0013                     	;# 
   339     0014                     	;# 
   340     0015                     	;# 
   341     0015                     	;# 
   342     0016                     	;# 
   343     0017                     	;# 
   344     0018                     	;# 
   345     0019                     	;# 
   346     001A                     	;# 
   347     001B                     	;# 
   348     001B                     	;# 
   349     001C                     	;# 
   350     001D                     	;# 
   351     001E                     	;# 
   352     001F                     	;# 
   353     0081                     	;# 
   354     0085                     	;# 
   355     0086                     	;# 
   356     0087                     	;# 
   357     0089                     	;# 
   358     008C                     	;# 
   359     008D                     	;# 
   360     008E                     	;# 
   361     008F                     	;# 
   362     0090                     	;# 
   363     0091                     	;# 
   364     0092                     	;# 
   365     0093                     	;# 
   366     0093                     	;# 
   367     0093                     	;# 
   368     0094                     	;# 
   369     0095                     	;# 
   370     0096                     	;# 
   371     0097                     	;# 
   372     0098                     	;# 
   373     0099                     	;# 
   374     009A                     	;# 
   375     009B                     	;# 
   376     009C                     	;# 
   377     009D                     	;# 
   378     009E                     	;# 
   379     009F                     	;# 
   380     0105                     	;# 
   381     0107                     	;# 
   382     0108                     	;# 
   383     0109                     	;# 
   384     010C                     	;# 
   385     010C                     	;# 
   386     010D                     	;# 
   387     010E                     	;# 
   388     010F                     	;# 
   389     0185                     	;# 
   390     0187                     	;# 
   391     0188                     	;# 
   392     0189                     	;# 
   393     018C                     	;# 
   394     018D                     	;# 
   395     0000                     	;# 
   396     0001                     	;# 
   397     0002                     	;# 
   398     0003                     	;# 
   399     0004                     	;# 
   400     0005                     	;# 
   401     0006                     	;# 
   402     0007                     	;# 
   403     0009                     	;# 
   404     000A                     	;# 
   405     000B                     	;# 
   406     000C                     	;# 
   407     000D                     	;# 
   408     000E                     	;# 
   409     000E                     	;# 
   410     000F                     	;# 
   411     0010                     	;# 
   412     0011                     	;# 
   413     0012                     	;# 
   414     0013                     	;# 
   415     0014                     	;# 
   416     0015                     	;# 
   417     0015                     	;# 
   418     0016                     	;# 
   419     0017                     	;# 
   420     0018                     	;# 
   421     0019                     	;# 
   422     001A                     	;# 
   423     001B                     	;# 
   424     001B                     	;# 
   425     001C                     	;# 
   426     001D                     	;# 
   427     001E                     	;# 
   428     001F                     	;# 
   429     0081                     	;# 
   430     0085                     	;# 
   431     0086                     	;# 
   432     0087                     	;# 
   433     0089                     	;# 
   434     008C                     	;# 
   435     008D                     	;# 
   436     008E                     	;# 
   437     008F                     	;# 
   438     0090                     	;# 
   439     0091                     	;# 
   440     0092                     	;# 
   441     0093                     	;# 
   442     0093                     	;# 
   443     0093                     	;# 
   444     0094                     	;# 
   445     0095                     	;# 
   446     0096                     	;# 
   447     0097                     	;# 
   448     0098                     	;# 
   449     0099                     	;# 
   450     009A                     	;# 
   451     009B                     	;# 
   452     009C                     	;# 
   453     009D                     	;# 
   454     009E                     	;# 
   455     009F                     	;# 
   456     0105                     	;# 
   457     0107                     	;# 
   458     0108                     	;# 
   459     0109                     	;# 
   460     010C                     	;# 
   461     010C                     	;# 
   462     010D                     	;# 
   463     010E                     	;# 
   464     010F                     	;# 
   465     0185                     	;# 
   466     0187                     	;# 
   467     0188                     	;# 
   468     0189                     	;# 
   469     018C                     	;# 
   470     018D                     	;# 
   471     0000                     	;# 
   472     0001                     	;# 
   473     0002                     	;# 
   474     0003                     	;# 
   475     0004                     	;# 
   476     0005                     	;# 
   477     0006                     	;# 
   478     0007                     	;# 
   479     0009                     	;# 
   480     000A                     	;# 
   481     000B                     	;# 
   482     000C                     	;# 
   483     000D                     	;# 
   484     000E                     	;# 
   485     000E                     	;# 
   486     000F                     	;# 
   487     0010                     	;# 
   488     0011                     	;# 
   489     0012                     	;# 
   490     0013                     	;# 
   491     0014                     	;# 
   492     0015                     	;# 
   493     0015                     	;# 
   494     0016                     	;# 
   495     0017                     	;# 
   496     0018                     	;# 
   497     0019                     	;# 
   498     001A                     	;# 
   499     001B                     	;# 
   500     001B                     	;# 
   501     001C                     	;# 
   502     001D                     	;# 
   503     001E                     	;# 
   504     001F                     	;# 
   505     0081                     	;# 
   506     0085                     	;# 
   507     0086                     	;# 
   508     0087                     	;# 
   509     0089                     	;# 
   510     008C                     	;# 
   511     008D                     	;# 
   512     008E                     	;# 
   513     008F                     	;# 
   514     0090                     	;# 
   515     0091                     	;# 
   516     0092                     	;# 
   517     0093                     	;# 
   518     0093                     	;# 
   519     0093                     	;# 
   520     0094                     	;# 
   521     0095                     	;# 
   522     0096                     	;# 
   523     0097                     	;# 
   524     0098                     	;# 
   525     0099                     	;# 
   526     009A                     	;# 
   527     009B                     	;# 
   528     009C                     	;# 
   529     009D                     	;# 
   530     009E                     	;# 
   531     009F                     	;# 
   532     0105                     	;# 
   533     0107                     	;# 
   534     0108                     	;# 
   535     0109                     	;# 
   536     010C                     	;# 
   537     010C                     	;# 
   538     010D                     	;# 
   539     010E                     	;# 
   540     010F                     	;# 
   541     0185                     	;# 
   542     0187                     	;# 
   543     0188                     	;# 
   544     0189                     	;# 
   545     018C                     	;# 
   546     018D                     	;# 
   547     0000                     	;# 
   548     0001                     	;# 
   549     0002                     	;# 
   550     0003                     	;# 
   551     0004                     	;# 
   552     0005                     	;# 
   553     0006                     	;# 
   554     0007                     	;# 
   555     0009                     	;# 
   556     000A                     	;# 
   557     000B                     	;# 
   558     000C                     	;# 
   559     000D                     	;# 
   560     000E                     	;# 
   561     000E                     	;# 
   562     000F                     	;# 
   563     0010                     	;# 
   564     0011                     	;# 
   565     0012                     	;# 
   566     0013                     	;# 
   567     0014                     	;# 
   568     0015                     	;# 
   569     0015                     	;# 
   570     0016                     	;# 
   571     0017                     	;# 
   572     0018                     	;# 
   573     0019                     	;# 
   574     001A                     	;# 
   575     001B                     	;# 
   576     001B                     	;# 
   577     001C                     	;# 
   578     001D                     	;# 
   579     001E                     	;# 
   580     001F                     	;# 
   581     0081                     	;# 
   582     0085                     	;# 
   583     0086                     	;# 
   584     0087                     	;# 
   585     0089                     	;# 
   586     008C                     	;# 
   587     008D                     	;# 
   588     008E                     	;# 
   589     008F                     	;# 
   590     0090                     	;# 
   591     0091                     	;# 
   592     0092                     	;# 
   593     0093                     	;# 
   594     0093                     	;# 
   595     0093                     	;# 
   596     0094                     	;# 
   597     0095                     	;# 
   598     0096                     	;# 
   599     0097                     	;# 
   600     0098                     	;# 
   601     0099                     	;# 
   602     009A                     	;# 
   603     009B                     	;# 
   604     009C                     	;# 
   605     009D                     	;# 
   606     009E                     	;# 
   607     009F                     	;# 
   608     0105                     	;# 
   609     0107                     	;# 
   610     0108                     	;# 
   611     0109                     	;# 
   612     010C                     	;# 
   613     010C                     	;# 
   614     010D                     	;# 
   615     010E                     	;# 
   616     010F                     	;# 
   617     0185                     	;# 
   618     0187                     	;# 
   619     0188                     	;# 
   620     0189                     	;# 
   621     018C                     	;# 
   622     018D                     	;# 
   623     0000                     	;# 
   624     0001                     	;# 
   625     0002                     	;# 
   626     0003                     	;# 
   627     0004                     	;# 
   628     0005                     	;# 
   629     0006                     	;# 
   630     0007                     	;# 
   631     0009                     	;# 
   632     000A                     	;# 
   633     000B                     	;# 
   634     000C                     	;# 
   635     000D                     	;# 
   636     000E                     	;# 
   637     000E                     	;# 
   638     000F                     	;# 
   639     0010                     	;# 
   640     0011                     	;# 
   641     0012                     	;# 
   642     0013                     	;# 
   643     0014                     	;# 
   644     0015                     	;# 
   645     0015                     	;# 
   646     0016                     	;# 
   647     0017                     	;# 
   648     0018                     	;# 
   649     0019                     	;# 
   650     001A                     	;# 
   651     001B                     	;# 
   652     001B                     	;# 
   653     001C                     	;# 
   654     001D                     	;# 
   655     001E                     	;# 
   656     001F                     	;# 
   657     0081                     	;# 
   658     0085                     	;# 
   659     0086                     	;# 
   660     0087                     	;# 
   661     0089                     	;# 
   662     008C                     	;# 
   663     008D                     	;# 
   664     008E                     	;# 
   665     008F                     	;# 
   666     0090                     	;# 
   667     0091                     	;# 
   668     0092                     	;# 
   669     0093                     	;# 
   670     0093                     	;# 
   671     0093                     	;# 
   672     0094                     	;# 
   673     0095                     	;# 
   674     0096                     	;# 
   675     0097                     	;# 
   676     0098                     	;# 
   677     0099                     	;# 
   678     009A                     	;# 
   679     009B                     	;# 
   680     009C                     	;# 
   681     009D                     	;# 
   682     009E                     	;# 
   683     009F                     	;# 
   684     0105                     	;# 
   685     0107                     	;# 
   686     0108                     	;# 
   687     0109                     	;# 
   688     010C                     	;# 
   689     010C                     	;# 
   690     010D                     	;# 
   691     010E                     	;# 
   692     010F                     	;# 
   693     0185                     	;# 
   694     0187                     	;# 
   695     0188                     	;# 
   696     0189                     	;# 
   697     018C                     	;# 
   698     018D                     	;# 
   699                           
   700                           	psect	idataBANK0
   701     0E0B                     __pidataBANK0:
   702                           
   703                           ;initializer for _pRadioConfiguration
   704     0E0B  34E6               	retlw	low (_RadioConfiguration| (0+32768))
   705     0E0C  3484               	retlw	high (_RadioConfiguration| (0+32768))
   706                           
   707                           ;initializer for _Radio_ChannelNumber
   708     0E0D  34FF               	retlw	255
   709                           
   710                           	psect	stringtext
   711     0100                     __pstringtext:
   712     0100                     stringtab:
   713     0100                     __stringtab:
   714                           
   715                           ;	String table - string pointers are 2 bytes each
   716     0100  1BFF               	btfsc	btemp+1,7
   717     0101  290A               	ljmp	stringcode
   718     0102  1383               	bcf	3,7
   719     0103  187F               	btfsc	btemp+1,0
   720     0104  1783               	bsf	3,7
   721     0105  0800               	movf	0,w
   722     0106  0A84               	incf	4,f
   723     0107  1903               	skipnz
   724     0108  0AFF               	incf	btemp+1,f
   725     0109  0008               	return
   726     010A                     stringcode:
   727     010A  087F               	movf	btemp+1,w
   728     010B  397F               	andlw	127
   729     010C  008A               	movwf	10
   730     010D  0804               	movf	4,w
   731     010E  0A84               	incf	4,f
   732     010F  1903               	skipnz
   733     0110  0AFF               	incf	btemp+1,f
   734     0111  0082               	movwf	2
   735     0112                     __stringbase:
   736     0112                     __end_of__stringtab:
   737     0112                     _dpowers:
   738     0112  3401               	retlw	1
   739     0113  3400               	retlw	0
   740     0114  340A               	retlw	10
   741     0115  3400               	retlw	0
   742     0116  3464               	retlw	100
   743     0117  3400               	retlw	0
   744     0118  34E8               	retlw	232
   745     0119  3403               	retlw	3
   746     011A  3410               	retlw	16
   747     011B  3427               	retlw	39
   748     011C                     __end_of_dpowers:
   749     011C                     _Radio_Configuration_Data_Array:
   750     011C  3408               	retlw	8
   751     011D  3404               	retlw	4
   752     011E  3421               	retlw	33
   753     011F  3471               	retlw	113
   754     0120  344B               	retlw	75
   755     0121  3400               	retlw	0
   756     0122  3400               	retlw	0
   757     0123  34DC               	retlw	220
   758     0124  3495               	retlw	149
   759     0125  3408               	retlw	8
   760     0126  3405               	retlw	5
   761     0127  34A6               	retlw	166
   762     0128  3422               	retlw	34
   763     0129  3421               	retlw	33
   764     012A  34F0               	retlw	240
   765     012B  3441               	retlw	65
   766     012C  345B               	retlw	91
   767     012D  3426               	retlw	38
   768     012E  3408               	retlw	8
   769     012F  34E2               	retlw	226
   770     0130  342F               	retlw	47
   771     0131  341C               	retlw	28
   772     0132  34BB               	retlw	187
   773     0133  340A               	retlw	10
   774     0134  34A8               	retlw	168
   775     0135  3494               	retlw	148
   776     0136  3428               	retlw	40
   777     0137  3408               	retlw	8
   778     0138  3405               	retlw	5
   779     0139  3487               	retlw	135
   780     013A  3467               	retlw	103
   781     013B  34E2               	retlw	226
   782     013C  3458               	retlw	88
   783     013D  341A               	retlw	26
   784     013E  3407               	retlw	7
   785     013F  345B               	retlw	91
   786     0140  3408               	retlw	8
   787     0141  34E1               	retlw	225
   788     0142  34D0               	retlw	208
   789     0143  3472               	retlw	114
   790     0144  34D8               	retlw	216
   791     0145  348A               	retlw	138
   792     0146  34B8               	retlw	184
   793     0147  345B               	retlw	91
   794     0148  347D               	retlw	125
   795     0149  3408               	retlw	8
   796     014A  3405               	retlw	5
   797     014B  3411               	retlw	17
   798     014C  34EC               	retlw	236
   799     014D  349E               	retlw	158
   800     014E  3428               	retlw	40
   801     014F  3423               	retlw	35
   802     0150  341B               	retlw	27
   803     0151  346D               	retlw	109
   804     0152  3408               	retlw	8
   805     0153  34E2               	retlw	226
   806     0154  344F               	retlw	79
   807     0155  348A               	retlw	138
   808     0156  34B2               	retlw	178
   809     0157  34A9               	retlw	169
   810     0158  3429               	retlw	41
   811     0159  3414               	retlw	20
   812     015A  3413               	retlw	19
   813     015B  3408               	retlw	8
   814     015C  3405               	retlw	5
   815     015D  34D1               	retlw	209
   816     015E  342E               	retlw	46
   817     015F  3471               	retlw	113
   818     0160  346A               	retlw	106
   819     0161  3451               	retlw	81
   820     0162  344C               	retlw	76
   821     0163  342C               	retlw	44
   822     0164  3408               	retlw	8
   823     0165  34E5               	retlw	229
   824     0166  3480               	retlw	128
   825     0167  3427               	retlw	39
   826     0168  3442               	retlw	66
   827     0169  34A4               	retlw	164
   828     016A  3469               	retlw	105
   829     016B  34B0               	retlw	176
   830     016C  347F               	retlw	127
   831     016D  3408               	retlw	8
   832     016E  3405               	retlw	5
   833     016F  34AA               	retlw	170
   834     0170  3481               	retlw	129
   835     0171  342A               	retlw	42
   836     0172  34BD               	retlw	189
   837     0173  3445               	retlw	69
   838     0174  34E8               	retlw	232
   839     0175  34A8               	retlw	168
   840     0176  3408               	retlw	8
   841     0177  34EA               	retlw	234
   842     0178  34E4               	retlw	228
   843     0179  34F0               	retlw	240
   844     017A  3424               	retlw	36
   845     017B  34C9               	retlw	201
   846     017C  349F               	retlw	159
   847     017D  34CC               	retlw	204
   848     017E  343C               	retlw	60
   849     017F  3408               	retlw	8
   850     0180  3405               	retlw	5
   851     0181  3408               	retlw	8
   852     0182  34F5               	retlw	245
   853     0183  3405               	retlw	5
   854     0184  3404               	retlw	4
   855     0185  3427               	retlw	39
   856     0186  3462               	retlw	98
   857     0187  3498               	retlw	152
   858     0188  3408               	retlw	8
   859     0189  34EA               	retlw	234
   860     018A  346B               	retlw	107
   861     018B  3462               	retlw	98
   862     018C  3484               	retlw	132
   863     018D  34A1               	retlw	161
   864     018E  34F9               	retlw	249
   865     018F  344A               	retlw	74
   866     0190  34E2               	retlw	226
   867     0191  3408               	retlw	8
   868     0192  3405               	retlw	5
   869     0193  34E9               	retlw	233
   870     0194  3477               	retlw	119
   871     0195  3405               	retlw	5
   872     0196  344F               	retlw	79
   873     0197  3484               	retlw	132
   874     0198  34EE               	retlw	238
   875     0199  3435               	retlw	53
   876     019A  3408               	retlw	8
   877     019B  34E2               	retlw	226
   878     019C  3443               	retlw	67
   879     019D  34C3               	retlw	195
   880     019E  348D               	retlw	141
   881     019F  34FB               	retlw	251
   882     01A0  34AD               	retlw	173
   883     01A1  3454               	retlw	84
   884     01A2  3425               	retlw	37
   885     01A3  3408               	retlw	8
   886     01A4  3405               	retlw	5
   887     01A5  3414               	retlw	20
   888     01A6  3406               	retlw	6
   889     01A7  345E               	retlw	94
   890     01A8  3439               	retlw	57
   891     01A9  3436               	retlw	54
   892     01AA  342F               	retlw	47
   893     01AB  3445               	retlw	69
   894     01AC  3408               	retlw	8
   895     01AD  34EA               	retlw	234
   896     01AE  340C               	retlw	12
   897     01AF  341C               	retlw	28
   898     01B0  3474               	retlw	116
   899     01B1  34D0               	retlw	208
   900     01B2  3411               	retlw	17
   901     01B3  34FC               	retlw	252
   902     01B4  3432               	retlw	50
   903     01B5  3408               	retlw	8
   904     01B6  3405               	retlw	5
   905     01B7  34DA               	retlw	218
   906     01B8  3438               	retlw	56
   907     01B9  34BA               	retlw	186
   908     01BA  340E               	retlw	14
   909     01BB  343C               	retlw	60
   910     01BC  34E7               	retlw	231
   911     01BD  348B               	retlw	139
   912     01BE  3408               	retlw	8
   913     01BF  34EA               	retlw	234
   914     01C0  34B0               	retlw	176
   915     01C1  3409               	retlw	9
   916     01C2  34E6               	retlw	230
   917     01C3  34FF               	retlw	255
   918     01C4  3494               	retlw	148
   919     01C5  34BB               	retlw	187
   920     01C6  34A9               	retlw	169
   921     01C7  3408               	retlw	8
   922     01C8  3405               	retlw	5
   923     01C9  34D7               	retlw	215
   924     01CA  3411               	retlw	17
   925     01CB  3429               	retlw	41
   926     01CC  34FE               	retlw	254
   927     01CD  34DC               	retlw	220
   928     01CE  3471               	retlw	113
   929     01CF  34D5               	retlw	213
   930     01D0  3408               	retlw	8
   931     01D1  34EA               	retlw	234
   932     01D2  347F               	retlw	127
   933     01D3  3483               	retlw	131
   934     01D4  34A7               	retlw	167
   935     01D5  3460               	retlw	96
   936     01D6  3490               	retlw	144
   937     01D7  3462               	retlw	98
   938     01D8  3418               	retlw	24
   939     01D9  3408               	retlw	8
   940     01DA  3405               	retlw	5
   941     01DB  3484               	retlw	132
   942     01DC  347F               	retlw	127
   943     01DD  346A               	retlw	106
   944     01DE  34D1               	retlw	209
   945     01DF  3491               	retlw	145
   946     01E0  34C6               	retlw	198
   947     01E1  3452               	retlw	82
   948     01E2  3408               	retlw	8
   949     01E3  34EA               	retlw	234
   950     01E4  342A               	retlw	42
   951     01E5  34D8               	retlw	216
   952     01E6  347B               	retlw	123
   953     01E7  348E               	retlw	142
   954     01E8  344A               	retlw	74
   955     01E9  349F               	retlw	159
   956     01EA  3491               	retlw	145
   957     01EB  3408               	retlw	8
   958     01EC  3405               	retlw	5
   959     01ED  34BD               	retlw	189
   960     01EE  34AA               	retlw	170
   961     01EF  349D               	retlw	157
   962     01F0  3416               	retlw	22
   963     01F1  3418               	retlw	24
   964     01F2  3406               	retlw	6
   965     01F3  3415               	retlw	21
   966     01F4  3408               	retlw	8
   967     01F5  34E2               	retlw	226
   968     01F6  3455               	retlw	85
   969     01F7  34AD               	retlw	173
   970     01F8  342D               	retlw	45
   971     01F9  340A               	retlw	10
   972     01FA  3414               	retlw	20
   973     01FB  341F               	retlw	31
   974     01FC  345D               	retlw	93
   975     01FD  3408               	retlw	8
   976     01FE  3405               	retlw	5
   977     01FF  34D3               	retlw	211
   978     0200  34E0               	retlw	224
   979     0201  347C               	retlw	124
   980     0202  3439               	retlw	57
   981     0203  34CF               	retlw	207
   982     0204  3401               	retlw	1
   983     0205  34F0               	retlw	240
   984     0206  3408               	retlw	8
   985     0207  34EF               	retlw	239
   986     0208  343A               	retlw	58
   987     0209  3491               	retlw	145
   988     020A  3472               	retlw	114
   989     020B  346A               	retlw	106
   990     020C  3403               	retlw	3
   991     020D  34BB               	retlw	187
   992     020E  3496               	retlw	150
   993     020F  3408               	retlw	8
   994     0210  34E7               	retlw	231
   995     0211  3483               	retlw	131
   996     0212  346D               	retlw	109
   997     0213  34A4               	retlw	164
   998     0214  3492               	retlw	146
   999     0215  34FC               	retlw	252
  1000     0216  3413               	retlw	19
  1001     0217  34A7               	retlw	167
  1002     0218  3408               	retlw	8
  1003     0219  34EF               	retlw	239
  1004     021A  34F8               	retlw	248
  1005     021B  34FD               	retlw	253
  1006     021C  34CF               	retlw	207
  1007     021D  3462               	retlw	98
  1008     021E  3407               	retlw	7
  1009     021F  346F               	retlw	111
  1010     0220  341E               	retlw	30
  1011     0221  3408               	retlw	8
  1012     0222  34E7               	retlw	231
  1013     0223  344C               	retlw	76
  1014     0224  34EA               	retlw	234
  1015     0225  344A               	retlw	74
  1016     0226  3475               	retlw	117
  1017     0227  344F               	retlw	79
  1018     0228  34D6               	retlw	214
  1019     0229  34CF               	retlw	207
  1020     022A  3408               	retlw	8
  1021     022B  34E2               	retlw	226
  1022     022C  34F6               	retlw	246
  1023     022D  3411               	retlw	17
  1024     022E  34E4               	retlw	228
  1025     022F  3426               	retlw	38
  1026     0230  340D               	retlw	13
  1027     0231  344D               	retlw	77
  1028     0232  34C6               	retlw	198
  1029     0233  3408               	retlw	8
  1030     0234  3405               	retlw	5
  1031     0235  34FB               	retlw	251
  1032     0236  34BF               	retlw	191
  1033     0237  34E8               	retlw	232
  1034     0238  3407               	retlw	7
  1035     0239  3489               	retlw	137
  1036     023A  34C3               	retlw	195
  1037     023B  3451               	retlw	81
  1038     023C  3408               	retlw	8
  1039     023D  34EF               	retlw	239
  1040     023E  3482               	retlw	130
  1041     023F  3427               	retlw	39
  1042     0240  3404               	retlw	4
  1043     0241  343F               	retlw	63
  1044     0242  3496               	retlw	150
  1045     0243  34A8               	retlw	168
  1046     0244  3458               	retlw	88
  1047     0245  3408               	retlw	8
  1048     0246  34E7               	retlw	231
  1049     0247  3441               	retlw	65
  1050     0248  3429               	retlw	41
  1051     0249  343C               	retlw	60
  1052     024A  3475               	retlw	117
  1053     024B  342A               	retlw	42
  1054     024C  3403               	retlw	3
  1055     024D  341C               	retlw	28
  1056     024E  3408               	retlw	8
  1057     024F  34EF               	retlw	239
  1058     0250  34AF               	retlw	175
  1059     0251  3459               	retlw	89
  1060     0252  3498               	retlw	152
  1061     0253  3436               	retlw	54
  1062     0254  34AA               	retlw	170
  1063     0255  340F               	retlw	15
  1064     0256  3406               	retlw	6
  1065     0257  3408               	retlw	8
  1066     0258  34E6               	retlw	230
  1067     0259  34F6               	retlw	246
  1068     025A  3493               	retlw	147
  1069     025B  3441               	retlw	65
  1070     025C  342D               	retlw	45
  1071     025D  34EC               	retlw	236
  1072     025E  340E               	retlw	14
  1073     025F  3499               	retlw	153
  1074     0260  3408               	retlw	8
  1075     0261  3405               	retlw	5
  1076     0262  3429               	retlw	41
  1077     0263  3419               	retlw	25
  1078     0264  3490               	retlw	144
  1079     0265  34E5               	retlw	229
  1080     0266  34AA               	retlw	170
  1081     0267  3436               	retlw	54
  1082     0268  3440               	retlw	64
  1083     0269  3408               	retlw	8
  1084     026A  34E7               	retlw	231
  1085     026B  34FB               	retlw	251
  1086     026C  3468               	retlw	104
  1087     026D  3410               	retlw	16
  1088     026E  347D               	retlw	125
  1089     026F  3477               	retlw	119
  1090     0270  345D               	retlw	93
  1091     0271  34C0               	retlw	192
  1092     0272  3408               	retlw	8
  1093     0273  34E7               	retlw	231
  1094     0274  34CB               	retlw	203
  1095     0275  34B4               	retlw	180
  1096     0276  34DD               	retlw	221
  1097     0277  34CE               	retlw	206
  1098     0278  3490               	retlw	144
  1099     0279  3454               	retlw	84
  1100     027A  34BE               	retlw	190
  1101     027B  3408               	retlw	8
  1102     027C  34E7               	retlw	231
  1103     027D  3472               	retlw	114
  1104     027E  348A               	retlw	138
  1105     027F  34D6               	retlw	214
  1106     0280  3402               	retlw	2
  1107     0281  34F4               	retlw	244
  1108     0282  34DD               	retlw	221
  1109     0283  34CC               	retlw	204
  1110     0284  3408               	retlw	8
  1111     0285  34E7               	retlw	231
  1112     0286  346A               	retlw	106
  1113     0287  3421               	retlw	33
  1114     0288  340B               	retlw	11
  1115     0289  3402               	retlw	2
  1116     028A  3486               	retlw	134
  1117     028B  34EC               	retlw	236
  1118     028C  3415               	retlw	21
  1119     028D  3408               	retlw	8
  1120     028E  34E7               	retlw	231
  1121     028F  347B               	retlw	123
  1122     0290  347C               	retlw	124
  1123     0291  343D               	retlw	61
  1124     0292  346B               	retlw	107
  1125     0293  3481               	retlw	129
  1126     0294  3403               	retlw	3
  1127     0295  34D0               	retlw	208
  1128     0296  3408               	retlw	8
  1129     0297  34EF               	retlw	239
  1130     0298  347D               	retlw	125
  1131     0299  3461               	retlw	97
  1132     029A  3436               	retlw	54
  1133     029B  3494               	retlw	148
  1134     029C  347C               	retlw	124
  1135     029D  34A0               	retlw	160
  1136     029E  34DF               	retlw	223
  1137     029F  3408               	retlw	8
  1138     02A0  34EF               	retlw	239
  1139     02A1  34CC               	retlw	204
  1140     02A2  3485               	retlw	133
  1141     02A3  343B               	retlw	59
  1142     02A4  34DA               	retlw	218
  1143     02A5  34E0               	retlw	224
  1144     02A6  345C               	retlw	92
  1145     02A7  341C               	retlw	28
  1146     02A8  3408               	retlw	8
  1147     02A9  34E7               	retlw	231
  1148     02AA  34E3               	retlw	227
  1149     02AB  3475               	retlw	117
  1150     02AC  34BB               	retlw	187
  1151     02AD  3439               	retlw	57
  1152     02AE  3422               	retlw	34
  1153     02AF  344B               	retlw	75
  1154     02B0  34A8               	retlw	168
  1155     02B1  3408               	retlw	8
  1156     02B2  34EF               	retlw	239
  1157     02B3  34F9               	retlw	249
  1158     02B4  34CE               	retlw	206
  1159     02B5  34E0               	retlw	224
  1160     02B6  345E               	retlw	94
  1161     02B7  34EB               	retlw	235
  1162     02B8  341D               	retlw	29
  1163     02B9  34CB               	retlw	203
  1164     02BA  3408               	retlw	8
  1165     02BB  34E7               	retlw	231
  1166     02BC  34BD               	retlw	189
  1167     02BD  34E2               	retlw	226
  1168     02BE  3470               	retlw	112
  1169     02BF  34D5               	retlw	213
  1170     02C0  34AB               	retlw	171
  1171     02C1  344E               	retlw	78
  1172     02C2  343F               	retlw	63
  1173     02C3  3408               	retlw	8
  1174     02C4  34E7               	retlw	231
  1175     02C5  34B7               	retlw	183
  1176     02C6  348D               	retlw	141
  1177     02C7  3420               	retlw	32
  1178     02C8  3468               	retlw	104
  1179     02C9  346B               	retlw	107
  1180     02CA  3409               	retlw	9
  1181     02CB  3452               	retlw	82
  1182     02CC  3408               	retlw	8
  1183     02CD  34EF               	retlw	239
  1184     02CE  34A1               	retlw	161
  1185     02CF  341B               	retlw	27
  1186     02D0  3490               	retlw	144
  1187     02D1  34CD               	retlw	205
  1188     02D2  3498               	retlw	152
  1189     02D3  3400               	retlw	0
  1190     02D4  3463               	retlw	99
  1191     02D5  3408               	retlw	8
  1192     02D6  34EF               	retlw	239
  1193     02D7  3454               	retlw	84
  1194     02D8  3467               	retlw	103
  1195     02D9  345D               	retlw	93
  1196     02DA  349C               	retlw	156
  1197     02DB  3411               	retlw	17
  1198     02DC  34FC               	retlw	252
  1199     02DD  3445               	retlw	69
  1200     02DE  3408               	retlw	8
  1201     02DF  34E7               	retlw	231
  1202     02E0  34D4               	retlw	212
  1203     02E1  349B               	retlw	155
  1204     02E2  34C8               	retlw	200
  1205     02E3  3497               	retlw	151
  1206     02E4  34BE               	retlw	190
  1207     02E5  348A               	retlw	138
  1208     02E6  3407               	retlw	7
  1209     02E7  3408               	retlw	8
  1210     02E8  34EF               	retlw	239
  1211     02E9  3452               	retlw	82
  1212     02EA  348D               	retlw	141
  1213     02EB  3490               	retlw	144
  1214     02EC  3463               	retlw	99
  1215     02ED  3473               	retlw	115
  1216     02EE  34D5               	retlw	213
  1217     02EF  342A               	retlw	42
  1218     02F0  3408               	retlw	8
  1219     02F1  34EF               	retlw	239
  1220     02F2  3403               	retlw	3
  1221     02F3  34BC               	retlw	188
  1222     02F4  346E               	retlw	110
  1223     02F5  341C               	retlw	28
  1224     02F6  3476               	retlw	118
  1225     02F7  34BE               	retlw	190
  1226     02F8  344A               	retlw	74
  1227     02F9  3408               	retlw	8
  1228     02FA  34E7               	retlw	231
  1229     02FB  34C2               	retlw	194
  1230     02FC  34ED               	retlw	237
  1231     02FD  3467               	retlw	103
  1232     02FE  34BA               	retlw	186
  1233     02FF  345E               	retlw	94
  1234     0300  3466               	retlw	102
  1235     0301  3421               	retlw	33
  1236     0302  3408               	retlw	8
  1237     0303  34EF               	retlw	239
  1238     0304  34E7               	retlw	231
  1239     0305  343F               	retlw	63
  1240     0306  3487               	retlw	135
  1241     0307  34BE               	retlw	190
  1242     0308  34E0               	retlw	224
  1243     0309  347A               	retlw	122
  1244     030A  346D               	retlw	109
  1245     030B  3408               	retlw	8
  1246     030C  34E7               	retlw	231
  1247     030D  34C9               	retlw	201
  1248     030E  3470               	retlw	112
  1249     030F  3493               	retlw	147
  1250     0310  341D               	retlw	29
  1251     0311  3464               	retlw	100
  1252     0312  34F5               	retlw	245
  1253     0313  346C               	retlw	108
  1254     0314  3408               	retlw	8
  1255     0315  34EF               	retlw	239
  1256     0316  34F5               	retlw	245
  1257     0317  3428               	retlw	40
  1258     0318  3408               	retlw	8
  1259     0319  3434               	retlw	52
  1260     031A  34B3               	retlw	179
  1261     031B  34B6               	retlw	182
  1262     031C  342C               	retlw	44
  1263     031D  3408               	retlw	8
  1264     031E  34EF               	retlw	239
  1265     031F  343A               	retlw	58
  1266     0320  340A               	retlw	10
  1267     0321  34EC               	retlw	236
  1268     0322  340F               	retlw	15
  1269     0323  34DB               	retlw	219
  1270     0324  3456               	retlw	86
  1271     0325  34CA               	retlw	202
  1272     0326  3408               	retlw	8
  1273     0327  34EF               	retlw	239
  1274     0328  3439               	retlw	57
  1275     0329  34A0               	retlw	160
  1276     032A  346E               	retlw	110
  1277     032B  34ED               	retlw	237
  1278     032C  3479               	retlw	121
  1279     032D  34D0               	retlw	208
  1280     032E  3424               	retlw	36
  1281     032F  3408               	retlw	8
  1282     0330  34E7               	retlw	231
  1283     0331  346C               	retlw	108
  1284     0332  340B               	retlw	11
  1285     0333  34AF               	retlw	175
  1286     0334  34A9               	retlw	169
  1287     0335  344E               	retlw	78
  1288     0336  3440               	retlw	64
  1289     0337  34B5               	retlw	181
  1290     0338  3408               	retlw	8
  1291     0339  34E9               	retlw	233
  1292     033A  34B9               	retlw	185
  1293     033B  34AF               	retlw	175
  1294     033C  34BF               	retlw	191
  1295     033D  3425               	retlw	37
  1296     033E  3450               	retlw	80
  1297     033F  34D1               	retlw	209
  1298     0340  3437               	retlw	55
  1299     0341  3408               	retlw	8
  1300     0342  3405               	retlw	5
  1301     0343  349E               	retlw	158
  1302     0344  34DB               	retlw	219
  1303     0345  34DE               	retlw	222
  1304     0346  343F               	retlw	63
  1305     0347  3494               	retlw	148
  1306     0348  34E9               	retlw	233
  1307     0349  346B               	retlw	107
  1308     034A  3408               	retlw	8
  1309     034B  34EC               	retlw	236
  1310     034C  34C5               	retlw	197
  1311     034D  3405               	retlw	5
  1312     034E  34AA               	retlw	170
  1313     034F  3457               	retlw	87
  1314     0350  34DC               	retlw	220
  1315     0351  348A               	retlw	138
  1316     0352  345E               	retlw	94
  1317     0353  3408               	retlw	8
  1318     0354  3405               	retlw	5
  1319     0355  3470               	retlw	112
  1320     0356  34DA               	retlw	218
  1321     0357  3484               	retlw	132
  1322     0358  3484               	retlw	132
  1323     0359  34DD               	retlw	221
  1324     035A  34CA               	retlw	202
  1325     035B  3490               	retlw	144
  1326     035C  3407               	retlw	7
  1327     035D  3402               	retlw	2
  1328     035E  3481               	retlw	129
  1329     035F  3400               	retlw	0
  1330     0360  3401               	retlw	1
  1331     0361  34C9               	retlw	201
  1332     0362  34C3               	retlw	195
  1333     0363  3480               	retlw	128
  1334     0364  3408               	retlw	8
  1335     0365  3413               	retlw	19
  1336     0366  3400               	retlw	0
  1337     0367  3400               	retlw	0
  1338     0368  3400               	retlw	0
  1339     0369  3400               	retlw	0
  1340     036A  3400               	retlw	0
  1341     036B  3400               	retlw	0
  1342     036C  3400               	retlw	0
  1343     036D  3406               	retlw	6
  1344     036E  3411               	retlw	17
  1345     036F  3400               	retlw	0
  1346     0370  3401               	retlw	1
  1347     0371  3400               	retlw	0
  1348     0372  3400               	retlw	0
  1349     0373  3400               	retlw	0
  1350     0374  3405               	retlw	5
  1351     0375  3411               	retlw	17
  1352     0376  3400               	retlw	0
  1353     0377  3401               	retlw	1
  1354     0378  3403               	retlw	3
  1355     0379  3420               	retlw	32
  1356     037A  3406               	retlw	6
  1357     037B  3411               	retlw	17
  1358     037C  3401               	retlw	1
  1359     037D  3402               	retlw	2
  1360     037E  3400               	retlw	0
  1361     037F  3401               	retlw	1
  1362     0380  3438               	retlw	56
  1363     0381  3408               	retlw	8
  1364     0382  3411               	retlw	17
  1365     0383  3402               	retlw	2
  1366     0384  3404               	retlw	4
  1367     0385  3400               	retlw	0
  1368     0386  3400               	retlw	0
  1369     0387  3400               	retlw	0
  1370     0388  3400               	retlw	0
  1371     0389  3400               	retlw	0
  1372     038A  340D               	retlw	13
  1373     038B  3411               	retlw	17
  1374     038C  3410               	retlw	16
  1375     038D  3409               	retlw	9
  1376     038E  3400               	retlw	0
  1377     038F  3408               	retlw	8
  1378     0390  3414               	retlw	20
  1379     0391  3400               	retlw	0
  1380     0392  340F               	retlw	15
  1381     0393  3431               	retlw	49
  1382     0394  3400               	retlw	0
  1383     0395  3400               	retlw	0
  1384     0396  3400               	retlw	0
  1385     0397  3400               	retlw	0
  1386     0398  340A               	retlw	10
  1387     0399  3411               	retlw	17
  1388     039A  3411               	retlw	17
  1389     039B  3406               	retlw	6
  1390     039C  3400               	retlw	0
  1391     039D  3409               	retlw	9
  1392     039E  34B4               	retlw	180
  1393     039F  342B               	retlw	43
  1394     03A0  3400               	retlw	0
  1395     03A1  3400               	retlw	0
  1396     03A2  3400               	retlw	0
  1397     03A3  3410               	retlw	16
  1398     03A4  3411               	retlw	17
  1399     03A5  3412               	retlw	18
  1400     03A6  340C               	retlw	12
  1401     03A7  3400               	retlw	0
  1402     03A8  3404               	retlw	4
  1403     03A9  3400               	retlw	0
  1404     03AA  3430               	retlw	48
  1405     03AB  34FF               	retlw	255
  1406     03AC  34FF               	retlw	255
  1407     03AD  3420               	retlw	32
  1408     03AE  3422               	retlw	34
  1409     03AF  3400               	retlw	0
  1410     03B0  3400               	retlw	0
  1411     03B1  3400               	retlw	0
  1412     03B2  3400               	retlw	0
  1413     03B3  3430               	retlw	48
  1414     03B4  3410               	retlw	16
  1415     03B5  3411               	retlw	17
  1416     03B6  3412               	retlw	18
  1417     03B7  340C               	retlw	12
  1418     03B8  340C               	retlw	12
  1419     03B9  3430               	retlw	48
  1420     03BA  3400               	retlw	0
  1421     03BB  3407               	retlw	7
  1422     03BC  3414               	retlw	20
  1423     03BD  3480               	retlw	128
  1424     03BE  3400               	retlw	0
  1425     03BF  3400               	retlw	0
  1426     03C0  3400               	retlw	0
  1427     03C1  3400               	retlw	0
  1428     03C2  3400               	retlw	0
  1429     03C3  3400               	retlw	0
  1430     03C4  3400               	retlw	0
  1431     03C5  3410               	retlw	16
  1432     03C6  3411               	retlw	17
  1433     03C7  3412               	retlw	18
  1434     03C8  340C               	retlw	12
  1435     03C9  3418               	retlw	24
  1436     03CA  3400               	retlw	0
  1437     03CB  3400               	retlw	0
  1438     03CC  3400               	retlw	0
  1439     03CD  3400               	retlw	0
  1440     03CE  3400               	retlw	0
  1441     03CF  3400               	retlw	0
  1442     03D0  3400               	retlw	0
  1443     03D1  3400               	retlw	0
  1444     03D2  3400               	retlw	0
  1445     03D3  3400               	retlw	0
  1446     03D4  3400               	retlw	0
  1447     03D5  3400               	retlw	0
  1448     03D6  3410               	retlw	16
  1449     03D7  3411               	retlw	17
  1450     03D8  3412               	retlw	18
  1451     03D9  340C               	retlw	12
  1452     03DA  3424               	retlw	36
  1453     03DB  3400               	retlw	0
  1454     03DC  3400               	retlw	0
  1455     03DD  3400               	retlw	0
  1456     03DE  3400               	retlw	0
  1457     03DF  3400               	retlw	0
  1458     03E0  3400               	retlw	0
  1459     03E1  3400               	retlw	0
  1460     03E2  3400               	retlw	0
  1461     03E3  3400               	retlw	0
  1462     03E4  3400               	retlw	0
  1463     03E5  3400               	retlw	0
  1464     03E6  3400               	retlw	0
  1465     03E7  3409               	retlw	9
  1466     03E8  3411               	retlw	17
  1467     03E9  3412               	retlw	18
  1468     03EA  3405               	retlw	5
  1469     03EB  3430               	retlw	48
  1470     03EC  3400               	retlw	0
  1471     03ED  3400               	retlw	0
  1472     03EE  3400               	retlw	0
  1473     03EF  3400               	retlw	0
  1474     03F0  3400               	retlw	0
  1475     03F1  3408               	retlw	8
  1476     03F2  3411               	retlw	17
  1477     03F3  3412               	retlw	18
  1478     03F4  3404               	retlw	4
  1479     03F5  3436               	retlw	54
  1480     03F6  3400               	retlw	0
  1481     03F7  3400               	retlw	0
  1482     03F8  3400               	retlw	0
  1483     03F9  3400               	retlw	0
  1484     03FA  3410               	retlw	16
  1485     03FB  3411               	retlw	17
  1486     03FC  3420               	retlw	32
  1487     03FD  340C               	retlw	12
  1488     03FE  3400               	retlw	0
  1489     03FF  3405               	retlw	5
  1490     0400  3400               	retlw	0
  1491     0401  3407               	retlw	7
  1492     0402  3401               	retlw	1
  1493     0403  3477               	retlw	119
  1494     0404  3400               	retlw	0
  1495     0405  3405               	retlw	5
  1496     0406  34C9               	retlw	201
  1497     0407  34C3               	retlw	195
  1498     0408  3480               	retlw	128
  1499     0409  3400               	retlw	0
  1500     040A  3400               	retlw	0
  1501     040B  3405               	retlw	5
  1502     040C  3411               	retlw	17
  1503     040D  3420               	retlw	32
  1504     040E  3401               	retlw	1
  1505     040F  340C               	retlw	12
  1506     0410  34D2               	retlw	210
  1507     0411  3410               	retlw	16
  1508     0412  3411               	retlw	17
  1509     0413  3420               	retlw	32
  1510     0414  340C               	retlw	12
  1511     0415  3418               	retlw	24
  1512     0416  3405               	retlw	5
  1513     0417  3400               	retlw	0
  1514     0418  3408               	retlw	8
  1515     0419  3403               	retlw	3
  1516     041A  3480               	retlw	128
  1517     041B  3400               	retlw	0
  1518     041C  3430               	retlw	48
  1519     041D  3420               	retlw	32
  1520     041E  340C               	retlw	12
  1521     041F  34E8               	retlw	232
  1522     0420  3403               	retlw	3
  1523     0421  340D               	retlw	13
  1524     0422  3410               	retlw	16
  1525     0423  3411               	retlw	17
  1526     0424  3420               	retlw	32
  1527     0425  340C               	retlw	12
  1528     0426  3424               	retlw	36
  1529     0427  3400               	retlw	0
  1530     0428  34A7               	retlw	167
  1531     0429  34C6               	retlw	198
  1532     042A  3400               	retlw	0
  1533     042B  3443               	retlw	67
  1534     042C  3402               	retlw	2
  1535     042D  3402               	retlw	2
  1536     042E  3400               	retlw	0
  1537     042F  3400               	retlw	0
  1538     0430  3412               	retlw	18
  1539     0431  3480               	retlw	128
  1540     0432  3415               	retlw	21
  1541     0433  3407               	retlw	7
  1542     0434  3411               	retlw	17
  1543     0435  3420               	retlw	32
  1544     0436  3403               	retlw	3
  1545     0437  3430               	retlw	48
  1546     0438  340F               	retlw	15
  1547     0439  3410               	retlw	16
  1548     043A  34A0               	retlw	160
  1549     043B  3405               	retlw	5
  1550     043C  3411               	retlw	17
  1551     043D  3420               	retlw	32
  1552     043E  3401               	retlw	1
  1553     043F  3435               	retlw	53
  1554     0440  34E0               	retlw	224
  1555     0441  3410               	retlw	16
  1556     0442  3411               	retlw	17
  1557     0443  3420               	retlw	32
  1558     0444  340C               	retlw	12
  1559     0445  3438               	retlw	56
  1560     0446  3411               	retlw	17
  1561     0447  34AB               	retlw	171
  1562     0448  34AB               	retlw	171
  1563     0449  3400               	retlw	0
  1564     044A  341A               	retlw	26
  1565     044B  3435               	retlw	53
  1566     044C  3455               	retlw	85
  1567     044D  3400               	retlw	0
  1568     044E  342B               	retlw	43
  1569     044F  340C               	retlw	12
  1570     0450  34A4               	retlw	164
  1571     0451  3423               	retlw	35
  1572     0452  340E               	retlw	14
  1573     0453  3411               	retlw	17
  1574     0454  3420               	retlw	32
  1575     0455  340A               	retlw	10
  1576     0456  3445               	retlw	69
  1577     0457  3403               	retlw	3
  1578     0458  3400               	retlw	0
  1579     0459  3442               	retlw	66
  1580     045A  3401               	retlw	1
  1581     045B  3400               	retlw	0
  1582     045C  34FF               	retlw	255
  1583     045D  3406               	retlw	6
  1584     045E  3400               	retlw	0
  1585     045F  3418               	retlw	24
  1586     0460  3440               	retlw	64
  1587     0461  3406               	retlw	6
  1588     0462  3411               	retlw	17
  1589     0463  3420               	retlw	32
  1590     0464  3402               	retlw	2
  1591     0465  3450               	retlw	80
  1592     0466  3484               	retlw	132
  1593     0467  340A               	retlw	10
  1594     0468  3406               	retlw	6
  1595     0469  3411               	retlw	17
  1596     046A  3420               	retlw	32
  1597     046B  3402               	retlw	2
  1598     046C  3454               	retlw	84
  1599     046D  3403               	retlw	3
  1600     046E  3407               	retlw	7
  1601     046F  3405               	retlw	5
  1602     0470  3411               	retlw	17
  1603     0471  3420               	retlw	32
  1604     0472  3401               	retlw	1
  1605     0473  3457               	retlw	87
  1606     0474  3400               	retlw	0
  1607     0475  3409               	retlw	9
  1608     0476  3411               	retlw	17
  1609     0477  3420               	retlw	32
  1610     0478  3405               	retlw	5
  1611     0479  345B               	retlw	91
  1612     047A  3440               	retlw	64
  1613     047B  3404               	retlw	4
  1614     047C  3405               	retlw	5
  1615     047D  3478               	retlw	120
  1616     047E  3420               	retlw	32
  1617     047F  3410               	retlw	16
  1618     0480  3411               	retlw	17
  1619     0481  3421               	retlw	33
  1620     0482  340C               	retlw	12
  1621     0483  3400               	retlw	0
  1622     0484  34A2               	retlw	162
  1623     0485  3481               	retlw	129
  1624     0486  3426               	retlw	38
  1625     0487  34AF               	retlw	175
  1626     0488  343F               	retlw	63
  1627     0489  34EE               	retlw	238
  1628     048A  34C8               	retlw	200
  1629     048B  34C7               	retlw	199
  1630     048C  34DB               	retlw	219
  1631     048D  34F2               	retlw	242
  1632     048E  3402               	retlw	2
  1633     048F  3408               	retlw	8
  1634     0490  3410               	retlw	16
  1635     0491  3411               	retlw	17
  1636     0492  3421               	retlw	33
  1637     0493  340C               	retlw	12
  1638     0494  340C               	retlw	12
  1639     0495  3407               	retlw	7
  1640     0496  3403               	retlw	3
  1641     0497  3415               	retlw	21
  1642     0498  34FC               	retlw	252
  1643     0499  340F               	retlw	15
  1644     049A  3400               	retlw	0
  1645     049B  34A2               	retlw	162
  1646     049C  3481               	retlw	129
  1647     049D  3426               	retlw	38
  1648     049E  34AF               	retlw	175
  1649     049F  343F               	retlw	63
  1650     04A0  34EE               	retlw	238
  1651     04A1  3410               	retlw	16
  1652     04A2  3411               	retlw	17
  1653     04A3  3421               	retlw	33
  1654     04A4  340C               	retlw	12
  1655     04A5  3418               	retlw	24
  1656     04A6  34C8               	retlw	200
  1657     04A7  34C7               	retlw	199
  1658     04A8  34DB               	retlw	219
  1659     04A9  34F2               	retlw	242
  1660     04AA  3402               	retlw	2
  1661     04AB  3408               	retlw	8
  1662     04AC  3407               	retlw	7
  1663     04AD  3403               	retlw	3
  1664     04AE  3415               	retlw	21
  1665     04AF  34FC               	retlw	252
  1666     04B0  340F               	retlw	15
  1667     04B1  3400               	retlw	0
  1668     04B2  3408               	retlw	8
  1669     04B3  3411               	retlw	17
  1670     04B4  3422               	retlw	34
  1671     04B5  3404               	retlw	4
  1672     04B6  3400               	retlw	0
  1673     04B7  3408               	retlw	8
  1674     04B8  347F               	retlw	127
  1675     04B9  3400               	retlw	0
  1676     04BA  341D               	retlw	29
  1677     04BB  340B               	retlw	11
  1678     04BC  3411               	retlw	17
  1679     04BD  3423               	retlw	35
  1680     04BE  3407               	retlw	7
  1681     04BF  3400               	retlw	0
  1682     04C0  342C               	retlw	44
  1683     04C1  340E               	retlw	14
  1684     04C2  340B               	retlw	11
  1685     04C3  3404               	retlw	4
  1686     04C4  340C               	retlw	12
  1687     04C5  3473               	retlw	115
  1688     04C6  3403               	retlw	3
  1689     04C7  3410               	retlw	16
  1690     04C8  3411               	retlw	17
  1691     04C9  3430               	retlw	48
  1692     04CA  340C               	retlw	12
  1693     04CB  3400               	retlw	0
  1694     04CC  3400               	retlw	0
  1695     04CD  3400               	retlw	0
  1696     04CE  3400               	retlw	0
  1697     04CF  3400               	retlw	0
  1698     04D0  3400               	retlw	0
  1699     04D1  3400               	retlw	0
  1700     04D2  3400               	retlw	0
  1701     04D3  3400               	retlw	0
  1702     04D4  3400               	retlw	0
  1703     04D5  3400               	retlw	0
  1704     04D6  3400               	retlw	0
  1705     04D7  3400               	retlw	0
  1706     04D8  340C               	retlw	12
  1707     04D9  3411               	retlw	17
  1708     04DA  3440               	retlw	64
  1709     04DB  3408               	retlw	8
  1710     04DC  3400               	retlw	0
  1711     04DD  343A               	retlw	58
  1712     04DE  340D               	retlw	13
  1713     04DF  3417               	retlw	23
  1714     04E0  34E4               	retlw	228
  1715     04E1  3406               	retlw	6
  1716     04E2  34D4               	retlw	212
  1717     04E3  3420               	retlw	32
  1718     04E4  34FE               	retlw	254
  1719     04E5  3400               	retlw	0
  1720     04E6                     __end_of_Radio_Configuration_Data_Array:
  1721     04E6                     _RadioConfiguration:
  1722     04E6  341C               	retlw	low (_Radio_Configuration_Data_Array| (0+32768))
  1723     04E7  3481               	retlw	high (_Radio_Configuration_Data_Array| (0+32768))
  1724     04E8  3400               	retlw	0
  1725     04E9  3407               	retlw	7
  1726     04EA  3403               	retlw	3
  1727     04EB  3400               	retlw	0
  1728     04EC  34F0               	retlw	240
  1729     04ED  34C5               	retlw	197
  1730     04EE  34C5               	retlw	197
  1731     04EF  34C5               	retlw	197
  1732     04F0  34C5               	retlw	197
  1733     04F1  34C5               	retlw	197
  1734     04F2  34C5               	retlw	197
  1735     04F3  34C5               	retlw	197
  1736     04F4  3400               	retlw	0
  1737     04F5  3400               	retlw	0
  1738     04F6  3400               	retlw	0
  1739     04F7  3400               	retlw	0
  1740     04F8  3400               	retlw	0
  1741     04F9  3400               	retlw	0
  1742     04FA  3400               	retlw	0
  1743     04FB  3400               	retlw	0
  1744     04FC  3400               	retlw	0
  1745     04FD  3400               	retlw	0
  1746     04FE  3400               	retlw	0
  1747     04FF  3400               	retlw	0
  1748     0500  3400               	retlw	0
  1749     0501  3400               	retlw	0
  1750     0502  3400               	retlw	0
  1751     0503  3400               	retlw	0
  1752     0504  3400               	retlw	0
  1753     0505  3400               	retlw	0
  1754     0506  3400               	retlw	0
  1755     0507  3400               	retlw	0
  1756     0508  3400               	retlw	0
  1757     0509  3400               	retlw	0
  1758     050A  3400               	retlw	0
  1759     050B  3400               	retlw	0
  1760     050C  3400               	retlw	0
  1761     050D  3400               	retlw	0
  1762     050E  3400               	retlw	0
  1763     050F  3400               	retlw	0
  1764     0510  3400               	retlw	0
  1765     0511  3400               	retlw	0
  1766     0512  3400               	retlw	0
  1767     0513  3400               	retlw	0
  1768     0514  3400               	retlw	0
  1769     0515  3400               	retlw	0
  1770     0516  3400               	retlw	0
  1771     0517  3400               	retlw	0
  1772     0518  3400               	retlw	0
  1773     0519  3400               	retlw	0
  1774     051A  3400               	retlw	0
  1775     051B  3400               	retlw	0
  1776     051C  3400               	retlw	0
  1777     051D  3400               	retlw	0
  1778     051E  3400               	retlw	0
  1779     051F  3400               	retlw	0
  1780     0520  3400               	retlw	0
  1781     0521  3400               	retlw	0
  1782     0522  3400               	retlw	0
  1783     0523  3400               	retlw	0
  1784     0524  3400               	retlw	0
  1785     0525  3400               	retlw	0
  1786     0526  3400               	retlw	0
  1787     0527  3400               	retlw	0
  1788     0528  3400               	retlw	0
  1789     0529  3400               	retlw	0
  1790     052A  3400               	retlw	0
  1791     052B  3400               	retlw	0
  1792     052C  3400               	retlw	0
  1793     052D                     __end_of_RadioConfiguration:
  1794     000B                     _INTCONbits	set	11
  1795     0014                     _SSPCONbits	set	20
  1796     0018                     _RCSTAbits	set	24
  1797     0013                     _SSPBUF	set	19
  1798     0019                     _TXREG	set	25
  1799     0030                     _RB0	set	48
  1800     0031                     _RB1	set	49
  1801     002D                     _RA5	set	45
  1802     0064                     _TXIF	set	100
  1803     0086                     _TRISBbits	set	134
  1804     0085                     _TRISAbits	set	133
  1805     008C                     _PIE1bits	set	140
  1806     0087                     _TRISCbits	set	135
  1807     0099                     _SPBRG	set	153
  1808     0098                     _TXSTAbits	set	152
  1809     008F                     _OSCCON	set	143
  1810     0094                     _SSPSTATbits	set	148
  1811     052D                     STR_1:
  1812     052D  3472               	retlw	114	;'r'
  1813     052E  3466               	retlw	102	;'f'
  1814     052F  3474               	retlw	116	;'t'
  1815     0530  3465               	retlw	101	;'e'
  1816     0531  3473               	retlw	115	;'s'
  1817     0532  3474               	retlw	116	;'t'
  1818     0533  3440               	retlw	64	;'@'
  1819     0534  3463               	retlw	99	;'c'
  1820     0535  3468               	retlw	104	;'h'
  1821     0536  3461               	retlw	97	;'a'
  1822     0537  346E               	retlw	110	;'n'
  1823     0538  346E               	retlw	110	;'n'
  1824     0539  3465               	retlw	101	;'e'
  1825     053A  346C               	retlw	108	;'l'
  1826     053B  343A               	retlw	58	;':'
  1827     053C  3425               	retlw	37	;'%'
  1828     053D  3464               	retlw	100	;'d'
  1829     053E  340D               	retlw	13
  1830     053F  340A               	retlw	10
  1831     0540  3400               	retlw	0
  1832                           
  1833                           	psect	cinit
  1834     0006                     start_initialization:	
  1835                           ; #config settings
  1836                           
  1837     0006                     __initialization:
  1838                           
  1839                           ; Initialize objects allocated to BANK0
  1840     0006  158A  260B  118A   	fcall	__pidataBANK0	;fetch initializer
  1841     0009  00DB               	movwf	__pdataBANK0& (0+127)
  1842     000A  158A  260C  118A   	fcall	__pidataBANK0+1	;fetch initializer
  1843     000D  00DC               	movwf	(__pdataBANK0+1)& (0+127)
  1844     000E  158A  260D  118A   	fcall	__pidataBANK0+2	;fetch initializer
  1845     0011  00DD               	movwf	(__pdataBANK0+2)& (0+127)
  1846                           
  1847                           ; Clear objects allocated to BANK2
  1848     0012  1783               	bsf	3,7	;select IRP bank2
  1849     0013  3020               	movlw	low __pbssBANK2
  1850     0014  0084               	movwf	4
  1851     0015  3060               	movlw	low (__pbssBANK2+64)
  1852     0016  158A  2643  118A   	fcall	clear_ram0
  1853                           
  1854                           ; Clear objects allocated to BANK1
  1855     0019  1383               	bcf	3,7	;select IRP bank0
  1856     001A  30A0               	movlw	low __pbssBANK1
  1857     001B  0084               	movwf	4
  1858     001C  30E0               	movlw	low (__pbssBANK1+64)
  1859     001D  158A  2643  118A   	fcall	clear_ram0
  1860                           
  1861                           ; Clear objects allocated to BANK0
  1862     0020  3020               	movlw	low __pbssBANK0
  1863     0021  0084               	movwf	4
  1864     0022  3042               	movlw	low (__pbssBANK0+34)
  1865     0023  158A  2643  118A   	fcall	clear_ram0
  1866     0026                     end_of_initialization:	
  1867                           ;End of C runtime variable initialization code
  1868                           
  1869     0026                     __end_of__initialization:
  1870     0026  0183               	clrf	3
  1871     0027  158A  2FCE         	ljmp	_main	;jump to C main() function
  1872                           
  1873                           	psect	bssBANK0
  1874     0020                     __pbssBANK0:
  1875     0020                     _Si446xCmd:
  1876     0020                     	ds	16
  1877     0030                     _ctsWentHigh:
  1878     0030                     	ds	1
  1879     0031                     _uartDataReceived:
  1880     0031                     	ds	1
  1881     0032                     _Pro2Cmd:
  1882     0032                     	ds	16
  1883                           
  1884                           	psect	dataBANK0
  1885     005B                     __pdataBANK0:
  1886     005B                     _pRadioConfiguration:
  1887     005B                     	ds	2
  1888     005D                     _Radio_ChannelNumber:
  1889     005D                     	ds	1
  1890                           
  1891                           	psect	bssBANK1
  1892     00A0                     __pbssBANK1:
  1893     00A0                     _customRadioPacket:
  1894     00A0                     	ds	64
  1895                           
  1896                           	psect	bssBANK2
  1897     0120                     __pbssBANK2:
  1898     0120                     _customRadioPacket2:
  1899     0120                     	ds	64
  1900                           
  1901                           	psect	clrtext
  1902     0E43                     clear_ram0:	
  1903                           ;	Called with FSR containing the base address, and
  1904                           ;	W with the last address+1
  1905                           
  1906     0E43  0064               	clrwdt	;clear the watchdog before getting into this loop
  1907     0E44                     clrloop0:
  1908     0E44  0180               	clrf	0	;clear RAM location pointed to by FSR
  1909     0E45  0A84               	incf	4,f	;increment pointer
  1910     0E46  0604               	xorwf	4,w	;XOR with final address
  1911     0E47  1903               	btfsc	3,2	;have we reached the end yet?
  1912     0E48  3400               	retlw	0	;all done for this memory range, return
  1913     0E49  0604               	xorwf	4,w	;XOR again to restore value
  1914     0E4A  2E44               	goto	clrloop0	;do the next byte
  1915                           
  1916                           	psect	cstackCOMMON
  1917     0070                     __pcstackCOMMON:
  1918     0070                     ?_PIC16F883_SI4463_INIT:
  1919     0070                     ?_vRadio_Init:	
  1920                           ; 1 bytes @ 0x0
  1921                           
  1922     0070                     ?_si446x_reset:	
  1923                           ; 1 bytes @ 0x0
  1924                           
  1925     0070                     ??_si446x_reset:	
  1926                           ; 1 bytes @ 0x0
  1927                           
  1928     0070                     ?_radio_hal_NirqLevel:	
  1929                           ; 1 bytes @ 0x0
  1930                           
  1931     0070                     ??_radio_hal_NirqLevel:	
  1932                           ; 1 bytes @ 0x0
  1933                           
  1934     0070                     ?_si446x_change_state:	
  1935                           ; 1 bytes @ 0x0
  1936                           
  1937     0070                     ?_si446x_fifo_info:	
  1938                           ; 1 bytes @ 0x0
  1939                           
  1940     0070                     ?_radio_hal_ClearNsel:	
  1941                           ; 1 bytes @ 0x0
  1942                           
  1943     0070                     ??_radio_hal_ClearNsel:	
  1944                           ; 1 bytes @ 0x0
  1945                           
  1946     0070                     ?_radio_hal_SpiWriteByte:	
  1947                           ; 1 bytes @ 0x0
  1948                           
  1949     0070                     ?_radio_hal_SpiReadByte:	
  1950                           ; 1 bytes @ 0x0
  1951                           
  1952     0070                     ?_radio_hal_SetNsel:	
  1953                           ; 1 bytes @ 0x0
  1954                           
  1955     0070                     ??_radio_hal_SetNsel:	
  1956                           ; 1 bytes @ 0x0
  1957                           
  1958     0070                     ?_radio_comm_PollCTS:	
  1959                           ; 1 bytes @ 0x0
  1960                           
  1961     0070                     ?_main:	
  1962                           ; 1 bytes @ 0x0
  1963                           
  1964     0070                     ?_SPI_Write:	
  1965                           ; 1 bytes @ 0x0
  1966                           
  1967     0070                     ??_SPI_Write:	
  1968                           ; 1 bytes @ 0x0
  1969                           
  1970     0070                     ?_SPI_Read:	
  1971                           ; 1 bytes @ 0x0
  1972                           
  1973     0070                     ??_SPI_Read:	
  1974                           ; 1 bytes @ 0x0
  1975                           
  1976     0070                     ?_Systick_Init:	
  1977                           ; 1 bytes @ 0x0
  1978                           
  1979     0070                     ??_Systick_Init:	
  1980                           ; 1 bytes @ 0x0
  1981                           
  1982     0070                     ?_SPI_Init:	
  1983                           ; 1 bytes @ 0x0
  1984                           
  1985     0070                     ??_SPI_Init:	
  1986                           ; 1 bytes @ 0x0
  1987                           
  1988     0070                     ?_GPIO_Init:	
  1989                           ; 1 bytes @ 0x0
  1990                           
  1991     0070                     ??_GPIO_Init:	
  1992                           ; 1 bytes @ 0x0
  1993                           
  1994     0070                     ?_Global_Interrupt:	
  1995                           ; 1 bytes @ 0x0
  1996                           
  1997     0070                     ??_Global_Interrupt:	
  1998                           ; 1 bytes @ 0x0
  1999                           
  2000     0070                     ?_vRadio_PowerUp:	
  2001                           ; 1 bytes @ 0x0
  2002                           
  2003     0070                     ?_radio_comm_ClearCTS:	
  2004                           ; 1 bytes @ 0x0
  2005                           
  2006     0070                     ??_radio_comm_ClearCTS:	
  2007                           ; 1 bytes @ 0x0
  2008                           
  2009     0070                     ?_radio_hal_AssertShutdown:	
  2010                           ; 1 bytes @ 0x0
  2011                           
  2012     0070                     ??_radio_hal_AssertShutdown:	
  2013                           ; 1 bytes @ 0x0
  2014                           
  2015     0070                     ?_radio_hal_DeassertShutdown:	
  2016                           ; 1 bytes @ 0x0
  2017                           
  2018     0070                     ??_radio_hal_DeassertShutdown:	
  2019                           ; 1 bytes @ 0x0
  2020                           
  2021     0070                     ?___lwdiv:	
  2022                           ; 1 bytes @ 0x0
  2023                           
  2024     0070                     ?___aldiv:	
  2025                           ; 2 bytes @ 0x0
  2026                           
  2027     0070                     SPI_Write@data:	
  2028                           ; 4 bytes @ 0x0
  2029                           
  2030     0070                     SPI_Read@data:	
  2031                           ; 1 bytes @ 0x0
  2032                           
  2033     0070                     si446x_reset@loopCount:	
  2034                           ; 1 bytes @ 0x0
  2035                           
  2036     0070                     ___lwdiv@divisor:	
  2037                           ; 1 bytes @ 0x0
  2038                           
  2039     0070                     ___aldiv@divisor:	
  2040                           ; 2 bytes @ 0x0
  2041                           
  2042                           
  2043                           ; 4 bytes @ 0x0
  2044     0070                     	ds	1
  2045     0071                     ??_radio_hal_SpiWriteByte:
  2046     0071                     ??_radio_hal_SpiReadByte:	
  2047                           ; 1 bytes @ 0x1
  2048                           
  2049     0071                     ?_radio_hal_SpiReadData:	
  2050                           ; 1 bytes @ 0x1
  2051                           
  2052     0071                     ?_radio_hal_SpiWriteData:	
  2053                           ; 1 bytes @ 0x1
  2054                           
  2055     0071                     ??_vRadio_PowerUp:	
  2056                           ; 1 bytes @ 0x1
  2057                           
  2058     0071                     radio_hal_SpiWriteByte@byteToWrite:	
  2059                           ; 1 bytes @ 0x1
  2060                           
  2061     0071                     radio_hal_SpiWriteData@pData:	
  2062                           ; 1 bytes @ 0x1
  2063                           
  2064     0071                     radio_hal_SpiReadData@pData:	
  2065                           ; 1 bytes @ 0x1
  2066                           
  2067                           
  2068                           ; 1 bytes @ 0x1
  2069     0071                     	ds	1
  2070     0072                     ??_radio_hal_SpiReadData:
  2071     0072                     ??_radio_hal_SpiWriteData:	
  2072                           ; 1 bytes @ 0x2
  2073                           
  2074     0072                     ___lwdiv@dividend:	
  2075                           ; 1 bytes @ 0x2
  2076                           
  2077                           
  2078                           ; 2 bytes @ 0x2
  2079     0072                     	ds	1
  2080     0073                     vRadio_PowerUp@wDelay:
  2081                           
  2082                           ; 2 bytes @ 0x3
  2083     0073                     	ds	1
  2084     0074                     ??___lwdiv:
  2085     0074                     radio_hal_SpiWriteData@byteCount:	
  2086                           ; 1 bytes @ 0x4
  2087                           
  2088     0074                     radio_hal_SpiReadData@byteCount:	
  2089                           ; 1 bytes @ 0x4
  2090                           
  2091     0074                     ___lwdiv@quotient:	
  2092                           ; 1 bytes @ 0x4
  2093                           
  2094     0074                     ___aldiv@dividend:	
  2095                           ; 2 bytes @ 0x4
  2096                           
  2097                           
  2098                           ; 4 bytes @ 0x4
  2099     0074                     	ds	1
  2100     0075                     radio_hal_SpiWriteData@i:
  2101     0075                     radio_hal_SpiReadData@i:	
  2102                           ; 2 bytes @ 0x5
  2103                           
  2104                           
  2105                           ; 2 bytes @ 0x5
  2106     0075                     	ds	1
  2107     0076                     ___lwdiv@counter:
  2108                           
  2109                           ; 1 bytes @ 0x6
  2110     0076                     	ds	1
  2111     0077                     ?_radio_comm_GetResp:
  2112     0077                     ?___lwmod:	
  2113                           ; 1 bytes @ 0x7
  2114                           
  2115     0077                     radio_comm_GetResp@pData:	
  2116                           ; 2 bytes @ 0x7
  2117                           
  2118     0077                     ___lwmod@divisor:	
  2119                           ; 1 bytes @ 0x7
  2120                           
  2121                           
  2122                           ; 2 bytes @ 0x7
  2123     0077                     	ds	1
  2124     0078                     ??_radio_comm_GetResp:
  2125     0078                     ??___aldiv:	
  2126                           ; 1 bytes @ 0x8
  2127                           
  2128     0078                     radio_comm_GetResp@byteCount:	
  2129                           ; 1 bytes @ 0x8
  2130                           
  2131                           
  2132                           ; 1 bytes @ 0x8
  2133     0078                     	ds	1
  2134     0079                     UART_Init@x:
  2135     0079                     radio_comm_GetResp@errCnt:	
  2136                           ; 2 bytes @ 0x9
  2137                           
  2138     0079                     ___lwmod@dividend:	
  2139                           ; 2 bytes @ 0x9
  2140                           
  2141                           
  2142                           ; 2 bytes @ 0x9
  2143     0079                     	ds	2
  2144     007B                     ??_PIC16F883_SI4463_INIT:
  2145     007B                     ??___lwmod:	
  2146                           ; 1 bytes @ 0xB
  2147                           
  2148     007B                     radio_comm_GetResp@ctsVal:	
  2149                           ; 1 bytes @ 0xB
  2150                           
  2151     007B                     ___lwmod@counter:	
  2152                           ; 1 bytes @ 0xB
  2153                           
  2154                           
  2155                           ; 1 bytes @ 0xB
  2156     007B                     	ds	1
  2157     007C                     ??_radio_comm_PollCTS:
  2158     007C                     ?_radio_comm_SendCmd:	
  2159                           ; 1 bytes @ 0xC
  2160                           
  2161     007C                     ??_radio_comm_WriteData:	
  2162                           ; 1 bytes @ 0xC
  2163                           
  2164     007C                     radio_comm_SendCmd@pData:	
  2165                           ; 1 bytes @ 0xC
  2166                           
  2167     007C                     radio_comm_WriteData@cmd:	
  2168                           ; 1 bytes @ 0xC
  2169                           
  2170                           
  2171                           ; 1 bytes @ 0xC
  2172     007C                     	ds	1
  2173     007D                     ??_si446x_write_tx_fifo:
  2174     007D                     ??_radio_comm_SendCmd:	
  2175                           ; 1 bytes @ 0xD
  2176                           
  2177     007D                     radio_comm_SendCmd@byteCount:	
  2178                           ; 1 bytes @ 0xD
  2179                           
  2180     007D                     si446x_write_tx_fifo@numBytes:	
  2181                           ; 1 bytes @ 0xD
  2182                           
  2183                           
  2184                           ; 1 bytes @ 0xD
  2185     007D                     	ds	1
  2186     007E                     ??_si446x_configuration_init:
  2187     007E                     ??_si446x_get_int_status:	
  2188                           ; 1 bytes @ 0xE
  2189                           
  2190     007E                     ??_si446x_change_state:	
  2191                           ; 1 bytes @ 0xE
  2192                           
  2193     007E                     ??_si446x_fifo_info:	
  2194                           ; 1 bytes @ 0xE
  2195                           
  2196     007E                     ??_si446x_start_tx:	
  2197                           ; 1 bytes @ 0xE
  2198                           
  2199     007E                     ??_radio_comm_SendCmdGetResp:	
  2200                           ; 1 bytes @ 0xE
  2201                           
  2202                           
  2203                           	psect	cstackBANK0
  2204     0042                     __pcstackBANK0:	
  2205                           ; 1 bytes @ 0xE
  2206                           
  2207     0042                     ?_si446x_start_tx:
  2208     0042                     ?_radio_comm_WriteData:	
  2209                           ; 1 bytes @ 0x0
  2210                           
  2211     0042                     ?_radio_comm_SendCmdGetResp:	
  2212                           ; 1 bytes @ 0x0
  2213                           
  2214     0042                     ?_sprintf:	
  2215                           ; 1 bytes @ 0x0
  2216                           
  2217     0042                     radio_comm_WriteData@pollCts:	
  2218                           ; 2 bytes @ 0x0
  2219                           
  2220     0042                     radio_comm_SendCmdGetResp@pCmdData:	
  2221                           ; 1 bytes @ 0x0
  2222                           
  2223     0042                     si446x_start_tx@CONDITION:	
  2224                           ; 1 bytes @ 0x0
  2225                           
  2226     0042                     si446x_change_state@NEXT_STATE1:	
  2227                           ; 1 bytes @ 0x0
  2228                           
  2229     0042                     ___aldiv@counter:	
  2230                           ; 1 bytes @ 0x0
  2231                           
  2232     0042                     sprintf@f:	
  2233                           ; 1 bytes @ 0x0
  2234                           
  2235                           
  2236                           ; 2 bytes @ 0x0
  2237     0042                     	ds	1
  2238     0043                     radio_comm_WriteData@byteCount:
  2239     0043                     radio_comm_SendCmdGetResp@respByteCount:	
  2240                           ; 1 bytes @ 0x1
  2241                           
  2242     0043                     ___aldiv@sign:	
  2243                           ; 1 bytes @ 0x1
  2244                           
  2245     0043                     si446x_start_tx@TX_LEN:	
  2246                           ; 1 bytes @ 0x1
  2247                           
  2248                           
  2249                           ; 2 bytes @ 0x1
  2250     0043                     	ds	1
  2251     0044                     radio_comm_WriteData@pData:
  2252     0044                     radio_comm_SendCmdGetResp@pRespData:	
  2253                           ; 1 bytes @ 0x2
  2254                           
  2255     0044                     ___aldiv@quotient:	
  2256                           ; 1 bytes @ 0x2
  2257                           
  2258                           
  2259                           ; 4 bytes @ 0x2
  2260     0044                     	ds	1
  2261     0045                     ?_si446x_write_tx_fifo:
  2262     0045                     radio_comm_SendCmdGetResp@cmdByteCount:	
  2263                           ; 1 bytes @ 0x3
  2264                           
  2265     0045                     si446x_start_tx@CHANNEL:	
  2266                           ; 1 bytes @ 0x3
  2267                           
  2268     0045                     si446x_write_tx_fifo@pTxData:	
  2269                           ; 1 bytes @ 0x3
  2270                           
  2271                           
  2272                           ; 1 bytes @ 0x3
  2273     0045                     	ds	1
  2274     0046                     ??_sprintf:
  2275     0046                     ?_si446x_get_int_status:	
  2276                           ; 1 bytes @ 0x4
  2277                           
  2278     0046                     si446x_get_int_status@MODEM_CLR_PEND:	
  2279                           ; 1 bytes @ 0x4
  2280                           
  2281     0046                     si446x_fifo_info@FIFO:	
  2282                           ; 1 bytes @ 0x4
  2283                           
  2284                           
  2285                           ; 1 bytes @ 0x4
  2286     0046                     	ds	1
  2287     0047                     si446x_get_int_status@CHIP_CLR_PEND:
  2288                           
  2289                           ; 1 bytes @ 0x5
  2290     0047                     	ds	1
  2291     0048                     ?_UART_Init:
  2292     0048                     si446x_get_int_status@PH_CLR_PEND:	
  2293                           ; 1 bytes @ 0x6
  2294                           
  2295     0048                     UART_Init@baudrate:	
  2296                           ; 1 bytes @ 0x6
  2297                           
  2298                           
  2299                           ; 4 bytes @ 0x6
  2300     0048                     	ds	1
  2301     0049                     ?_vRadio_StartTx_Variable_Packet:
  2302     0049                     ?_si446x_configuration_init:	
  2303                           ; 1 bytes @ 0x7
  2304                           
  2305     0049                     vRadio_StartTx_Variable_Packet@pioRadioPacket:	
  2306                           ; 1 bytes @ 0x7
  2307                           
  2308     0049                     si446x_configuration_init@pSetPropCmd:	
  2309                           ; 1 bytes @ 0x7
  2310                           
  2311                           
  2312                           ; 2 bytes @ 0x7
  2313     0049                     	ds	1
  2314     004A                     vRadio_StartTx_Variable_Packet@length:
  2315     004A                     sprintf@ap:	
  2316                           ; 1 bytes @ 0x8
  2317                           
  2318                           
  2319                           ; 1 bytes @ 0x8
  2320     004A                     	ds	1
  2321     004B                     ??_vRadio_StartTx_Variable_Packet:
  2322     004B                     si446x_configuration_init@col:	
  2323                           ; 1 bytes @ 0x9
  2324                           
  2325     004B                     sprintf@flag:	
  2326                           ; 1 bytes @ 0x9
  2327                           
  2328                           
  2329                           ; 1 bytes @ 0x9
  2330     004B                     	ds	1
  2331     004C                     ??_UART_Init:
  2332     004C                     si446x_configuration_init@numOfBytes:	
  2333                           ; 1 bytes @ 0xA
  2334                           
  2335     004C                     sprintf@prec:	
  2336                           ; 1 bytes @ 0xA
  2337                           
  2338                           
  2339                           ; 1 bytes @ 0xA
  2340     004C                     	ds	1
  2341     004D                     ??_vRadio_Init:
  2342     004D                     vRadio_StartTx_Variable_Packet@channel:	
  2343                           ; 1 bytes @ 0xB
  2344                           
  2345     004D                     sprintf@val:	
  2346                           ; 1 bytes @ 0xB
  2347                           
  2348                           
  2349                           ; 2 bytes @ 0xB
  2350     004D                     	ds	2
  2351     004F                     sprintf@sp:
  2352     004F                     vRadio_Init@wDelay:	
  2353                           ; 1 bytes @ 0xD
  2354                           
  2355                           
  2356                           ; 2 bytes @ 0xD
  2357     004F                     	ds	1
  2358     0050                     sprintf@c:
  2359                           
  2360                           ; 1 bytes @ 0xE
  2361     0050                     	ds	8
  2362     0058                     ??_main:
  2363                           
  2364                           ; 1 bytes @ 0x16
  2365     0058                     	ds	3
  2366                           
  2367                           	psect	maintext
  2368     0FCE                     __pmaintext:	
  2369 ;;
  2370 ;;Main: autosize = 0, tempsize = 3, incstack = 0, save=0
  2371 ;;
  2372 ;; *************** function _main *****************
  2373 ;; Defined at:
  2374 ;;		line 50 in file "F883_Si4463_main.c"
  2375 ;; Parameters:    Size  Location     Type
  2376 ;;		None
  2377 ;; Auto vars:     Size  Location     Type
  2378 ;;		None
  2379 ;; Return value:  Size  Location     Type
  2380 ;;                  1    wreg      void 
  2381 ;; Registers used:
  2382 ;;		wreg, fsr0l, fsr0h, status,2, status,0, btemp+1, pclath, cstack
  2383 ;; Tracked objects:
  2384 ;;		On entry : B00/0
  2385 ;;		On exit  : 0/0
  2386 ;;		Unchanged: 0/0
  2387 ;; Data sizes:     COMMON   BANK0   BANK1   BANK2
  2388 ;;      Params:         0       0       0       0
  2389 ;;      Locals:         0       0       0       0
  2390 ;;      Temps:          0       3       0       0
  2391 ;;      Totals:         0       3       0       0
  2392 ;;Total ram usage:        3 bytes
  2393 ;; Hardware stack levels required when called: 9
  2394 ;; This function calls:
  2395 ;;		_PIC16F883_SI4463_INIT
  2396 ;;		_sprintf
  2397 ;;		_vRadio_Init
  2398 ;;		_vRadio_StartTx_Variable_Packet
  2399 ;; This function is called by:
  2400 ;;		Startup code after reset
  2401 ;; This function uses a non-reentrant model
  2402 ;;
  2403                           
  2404     0FCE                     _main:	
  2405                           ;psect for function _main
  2406                           
  2407     0FCE                     l2694:	
  2408                           ;incstack = 0
  2409 ;; hardware stack exceeded
  2410                           ; Regs used in _main: [wreg-fsr0h+status,2+status,0+btemp+1+pclath+cstack]
  2411                           
  2412                           
  2413                           ;F883_Si4463_main.c: 51:     PIC16F883_SI4463_INIT();
  2414     0FCE  158A  26D7  158A   	fcall	_PIC16F883_SI4463_INIT
  2415     0FD1                     l2696:
  2416                           
  2417                           ;F883_Si4463_main.c: 52:  vRadio_Init();
  2418     0FD1  118A  206D  158A   	fcall	_vRadio_Init
  2419     0FD4                     l2698:
  2420                           
  2421                           ;F883_Si4463_main.c: 53:     sprintf((char *)customRadioPacket,"rftest@channel:%d\r\n",0
      +                          );
  2422     0FD4  302D               	movlw	low (STR_1| (0+32768))
  2423     0FD5  1283               	bcf	3,5	;RP0=0, select bank0
  2424     0FD6  1303               	bcf	3,6	;RP1=0, select bank0
  2425     0FD7  00C2               	movwf	sprintf@f
  2426     0FD8  3085               	movlw	high (STR_1| (0+32768))
  2427     0FD9  00C3               	movwf	sprintf@f+1
  2428     0FDA  3000               	movlw	0
  2429     0FDB  00C4               	movwf	?_sprintf+2
  2430     0FDC  00C5               	movwf	?_sprintf+3
  2431     0FDD  30A0               	movlw	(low (_customRadioPacket| 0))& (0+255)
  2432     0FDE  118A  2541  158A   	fcall	_sprintf
  2433     0FE1                     l2700:
  2434                           
  2435                           ;F883_Si4463_main.c: 54:     Radio_ChannelNumber = 0;
  2436     0FE1  1283               	bcf	3,5	;RP0=0, select bank0
  2437     0FE2  1303               	bcf	3,6	;RP1=0, select bank0
  2438     0FE3  01DD               	clrf	_Radio_ChannelNumber
  2439     0FE4                     l2702:
  2440                           
  2441                           ;F883_Si4463_main.c: 58:         vRadio_StartTx_Variable_Packet(Radio_ChannelNumber, cus
      +                          tomRadioPacket, 64);
  2442     0FE4  30A0               	movlw	(low (_customRadioPacket| 0))& (0+255)
  2443     0FE5  1283               	bcf	3,5	;RP0=0, select bank0
  2444     0FE6  1303               	bcf	3,6	;RP1=0, select bank0
  2445     0FE7  00C9               	movwf	vRadio_StartTx_Variable_Packet@pioRadioPacket
  2446     0FE8  3040               	movlw	64
  2447     0FE9  00CA               	movwf	vRadio_StartTx_Variable_Packet@length
  2448     0FEA  085D               	movf	_Radio_ChannelNumber,w
  2449     0FEB  158A  27A3  158A   	fcall	_vRadio_StartTx_Variable_Packet
  2450     0FEE                     l2704:
  2451                           
  2452                           ;F883_Si4463_main.c: 59:         _delay((unsigned long)((1000)*(8000000/4000.0)));
  2453     0FEE  300B               	movlw	11
  2454     0FEF  1283               	bcf	3,5	;RP0=0, select bank0
  2455     0FF0  1303               	bcf	3,6	;RP1=0, select bank0
  2456     0FF1  00DA               	movwf	??_main+2
  2457     0FF2  3026               	movlw	38
  2458     0FF3  00D9               	movwf	??_main+1
  2459     0FF4  305D               	movlw	93
  2460     0FF5  00D8               	movwf	??_main
  2461     0FF6                     u1787:
  2462     0FF6  0BD8               	decfsz	??_main,f
  2463     0FF7  2FF6               	goto	u1787
  2464     0FF8  0BD9               	decfsz	??_main+1,f
  2465     0FF9  2FF6               	goto	u1787
  2466     0FFA  0BDA               	decfsz	??_main+2,f
  2467     0FFB  2FF6               	goto	u1787
  2468     0FFC  0000               	nop
  2469     0FFD  2FE4               	goto	l2702
  2470     0FFE  118A  2804         	ljmp	start
  2471     1000                     __end_of_main:
  2472                           
  2473                           	psect	text1
  2474     0FA3                     __ptext1:	
  2475 ;; *************** function _vRadio_StartTx_Variable_Packet *****************
  2476 ;; Defined at:
  2477 ;;		line 154 in file "Si4463/radio.c"
  2478 ;; Parameters:    Size  Location     Type
  2479 ;;  channel         1    wreg     unsigned char 
  2480 ;;  pioRadioPack    1    7[BANK0 ] PTR unsigned char 
  2481 ;;		 -> customRadioPacket(64), 
  2482 ;;  length          1    8[BANK0 ] unsigned char 
  2483 ;; Auto vars:     Size  Location     Type
  2484 ;;  channel         1   11[BANK0 ] unsigned char 
  2485 ;; Return value:  Size  Location     Type
  2486 ;;                  1    wreg      void 
  2487 ;; Registers used:
  2488 ;;		wreg, fsr0l, fsr0h, status,2, status,0, pclath, cstack
  2489 ;; Tracked objects:
  2490 ;;		On entry : 0/0
  2491 ;;		On exit  : 0/0
  2492 ;;		Unchanged: 0/0
  2493 ;; Data sizes:     COMMON   BANK0   BANK1   BANK2
  2494 ;;      Params:         0       2       0       0
  2495 ;;      Locals:         0       1       0       0
  2496 ;;      Temps:          0       2       0       0
  2497 ;;      Totals:         0       5       0       0
  2498 ;;Total ram usage:        5 bytes
  2499 ;; Hardware stack levels used: 1
  2500 ;; Hardware stack levels required when called: 7
  2501 ;; This function calls:
  2502 ;;		_si446x_change_state
  2503 ;;		_si446x_fifo_info
  2504 ;;		_si446x_get_int_status
  2505 ;;		_si446x_start_tx
  2506 ;;		_si446x_write_tx_fifo
  2507 ;; This function is called by:
  2508 ;;		_main
  2509 ;; This function uses a non-reentrant model
  2510 ;;
  2511                           
  2512     0FA3                     _vRadio_StartTx_Variable_Packet:	
  2513                           ;psect for function _vRadio_StartTx_Variable_Packet
  2514                           
  2515                           
  2516                           ;incstack = 0
  2517                           ; Regs used in _vRadio_StartTx_Variable_Packet: [wreg-fsr0h+status,2+status,0+pclath+cst
      +                          ack]
  2518                           ;vRadio_StartTx_Variable_Packet@channel stored from wreg
  2519     0FA3  1283               	bcf	3,5	;RP0=0, select bank0
  2520     0FA4  1303               	bcf	3,6	;RP1=0, select bank0
  2521     0FA5  00CD               	movwf	vRadio_StartTx_Variable_Packet@channel
  2522     0FA6                     l2674:
  2523                           
  2524                           ;Si4463/radio.c: 156:     si446x_change_state(3);
  2525     0FA6  3003               	movlw	3
  2526     0FA7  158A  2664  158A   	fcall	_si446x_change_state
  2527                           
  2528                           ;Si4463/radio.c: 159:     si446x_get_int_status(0u, 0u, 0u);
  2529     0FAA  1283               	bcf	3,5	;RP0=0, select bank0
  2530     0FAB  1303               	bcf	3,6	;RP1=0, select bank0
  2531     0FAC  01C6               	clrf	si446x_get_int_status@MODEM_CLR_PEND
  2532     0FAD  01C7               	clrf	si446x_get_int_status@CHIP_CLR_PEND
  2533     0FAE  3000               	movlw	0
  2534     0FAF  158A  2752  158A   	fcall	_si446x_get_int_status
  2535                           
  2536                           ;Si4463/radio.c: 162:     si446x_fifo_info(0x1);
  2537     0FB2  3001               	movlw	1
  2538     0FB3  158A  26BF  158A   	fcall	_si446x_fifo_info
  2539                           
  2540                           ;Si4463/radio.c: 165:     si446x_write_tx_fifo(length, pioRadioPacket);
  2541     0FB6  1283               	bcf	3,5	;RP0=0, select bank0
  2542     0FB7  1303               	bcf	3,6	;RP1=0, select bank0
  2543     0FB8  0849               	movf	vRadio_StartTx_Variable_Packet@pioRadioPacket,w
  2544     0FB9  00C5               	movwf	si446x_write_tx_fifo@pTxData
  2545     0FBA  084A               	movf	vRadio_StartTx_Variable_Packet@length,w
  2546     0FBB  158A  2657  158A   	fcall	_si446x_write_tx_fifo
  2547                           
  2548                           ;Si4463/radio.c: 168:      si446x_start_tx(channel, 0x80, length);
  2549     0FBE  3080               	movlw	128
  2550     0FBF  1283               	bcf	3,5	;RP0=0, select bank0
  2551     0FC0  1303               	bcf	3,6	;RP1=0, select bank0
  2552     0FC1  00C2               	movwf	si446x_start_tx@CONDITION
  2553     0FC2  084A               	movf	vRadio_StartTx_Variable_Packet@length,w
  2554     0FC3  00CB               	movwf	??_vRadio_StartTx_Variable_Packet
  2555     0FC4  01CC               	clrf	??_vRadio_StartTx_Variable_Packet+1
  2556     0FC5  084B               	movf	??_vRadio_StartTx_Variable_Packet,w
  2557     0FC6  00C3               	movwf	si446x_start_tx@TX_LEN
  2558     0FC7  084C               	movf	??_vRadio_StartTx_Variable_Packet+1,w
  2559     0FC8  00C4               	movwf	si446x_start_tx@TX_LEN+1
  2560     0FC9  084D               	movf	vRadio_StartTx_Variable_Packet@channel,w
  2561     0FCA  158A  26A9  158A   	fcall	_si446x_start_tx
  2562     0FCD                     l178:
  2563     0FCD  0008               	return
  2564     0FCE                     __end_of_vRadio_StartTx_Variable_Packet:
  2565                           
  2566                           	psect	text2
  2567     0E57                     __ptext2:	
  2568 ;; *************** function _si446x_write_tx_fifo *****************
  2569 ;; Defined at:
  2570 ;;		line 325 in file "Si4463/si446x_api_lib.c"
  2571 ;; Parameters:    Size  Location     Type
  2572 ;;  numBytes        1    wreg     unsigned char 
  2573 ;;  pTxData         1    3[BANK0 ] PTR unsigned char 
  2574 ;;		 -> customRadioPacket(64), 
  2575 ;; Auto vars:     Size  Location     Type
  2576 ;;  numBytes        1   13[COMMON] unsigned char 
  2577 ;; Return value:  Size  Location     Type
  2578 ;;                  1    wreg      void 
  2579 ;; Registers used:
  2580 ;;		wreg, fsr0l, fsr0h, status,2, status,0, pclath, cstack
  2581 ;; Tracked objects:
  2582 ;;		On entry : 0/0
  2583 ;;		On exit  : 0/0
  2584 ;;		Unchanged: 0/0
  2585 ;; Data sizes:     COMMON   BANK0   BANK1   BANK2
  2586 ;;      Params:         0       1       0       0
  2587 ;;      Locals:         1       0       0       0
  2588 ;;      Temps:          0       0       0       0
  2589 ;;      Totals:         1       1       0       0
  2590 ;;Total ram usage:        2 bytes
  2591 ;; Hardware stack levels used: 1
  2592 ;; Hardware stack levels required when called: 5
  2593 ;; This function calls:
  2594 ;;		_radio_comm_WriteData
  2595 ;; This function is called by:
  2596 ;;		_vRadio_StartTx_Variable_Packet
  2597 ;; This function uses a non-reentrant model
  2598 ;;
  2599                           
  2600     0E57                     _si446x_write_tx_fifo:	
  2601                           ;psect for function _si446x_write_tx_fifo
  2602                           
  2603                           
  2604                           ;incstack = 0
  2605                           ; Regs used in _si446x_write_tx_fifo: [wreg-fsr0h+status,2+status,0+pclath+cstack]
  2606                           ;si446x_write_tx_fifo@numBytes stored from wreg
  2607     0E57  00FD               	movwf	si446x_write_tx_fifo@numBytes
  2608     0E58                     l2586:
  2609                           
  2610                           ;Si4463/si446x_api_lib.c: 325: void si446x_write_tx_fifo(U8 numBytes, U8* pTxData);Si446
      +                          3/si446x_api_lib.c: 326: {;Si4463/si446x_api_lib.c: 327:   radio_comm_WriteData( 0x66, 0
      +                          , numBytes, pTxData );
  2611     0E58  1283               	bcf	3,5	;RP0=0, select bank0
  2612     0E59  1303               	bcf	3,6	;RP1=0, select bank0
  2613     0E5A  01C2               	clrf	radio_comm_WriteData@pollCts
  2614     0E5B  087D               	movf	si446x_write_tx_fifo@numBytes,w
  2615     0E5C  00C3               	movwf	radio_comm_WriteData@byteCount
  2616     0E5D  0845               	movf	si446x_write_tx_fifo@pTxData,w
  2617     0E5E  00C4               	movwf	radio_comm_WriteData@pData
  2618     0E5F  3066               	movlw	102
  2619     0E60  158A  277A  158A   	fcall	_radio_comm_WriteData
  2620     0E63                     l373:
  2621     0E63  0008               	return
  2622     0E64                     __end_of_si446x_write_tx_fifo:
  2623                           
  2624                           	psect	text3
  2625     0F7A                     __ptext3:	
  2626 ;; *************** function _radio_comm_WriteData *****************
  2627 ;; Defined at:
  2628 ;;		line 131 in file "Si4463/radio_comm.c"
  2629 ;; Parameters:    Size  Location     Type
  2630 ;;  cmd             1    wreg     unsigned char 
  2631 ;;  pollCts         1    0[BANK0 ] unsigned char 
  2632 ;;  byteCount       1    1[BANK0 ] unsigned char 
  2633 ;;  pData           1    2[BANK0 ] PTR unsigned char 
  2634 ;;		 -> customRadioPacket(64), 
  2635 ;; Auto vars:     Size  Location     Type
  2636 ;;  cmd             1   12[COMMON] unsigned char 
  2637 ;; Return value:  Size  Location     Type
  2638 ;;                  1    wreg      void 
  2639 ;; Registers used:
  2640 ;;		wreg, fsr0l, fsr0h, status,2, status,0, pclath, cstack
  2641 ;; Tracked objects:
  2642 ;;		On entry : 0/0
  2643 ;;		On exit  : 0/0
  2644 ;;		Unchanged: 0/0
  2645 ;; Data sizes:     COMMON   BANK0   BANK1   BANK2
  2646 ;;      Params:         0       3       0       0
  2647 ;;      Locals:         1       0       0       0
  2648 ;;      Temps:          0       0       0       0
  2649 ;;      Totals:         1       3       0       0
  2650 ;;Total ram usage:        4 bytes
  2651 ;; Hardware stack levels used: 1
  2652 ;; Hardware stack levels required when called: 4
  2653 ;; This function calls:
  2654 ;;		_radio_comm_PollCTS
  2655 ;;		_radio_hal_ClearNsel
  2656 ;;		_radio_hal_SetNsel
  2657 ;;		_radio_hal_SpiWriteByte
  2658 ;;		_radio_hal_SpiWriteData
  2659 ;; This function is called by:
  2660 ;;		_si446x_write_tx_fifo
  2661 ;; This function uses a non-reentrant model
  2662 ;;
  2663                           
  2664     0F7A                     _radio_comm_WriteData:	
  2665                           ;psect for function _radio_comm_WriteData
  2666                           
  2667                           
  2668                           ;incstack = 0
  2669                           ; Regs used in _radio_comm_WriteData: [wreg-fsr0h+status,2+status,0+pclath+cstack]
  2670                           ;radio_comm_WriteData@cmd stored from wreg
  2671     0F7A  00FC               	movwf	radio_comm_WriteData@cmd
  2672     0F7B                     l2512:
  2673                           
  2674                           ;Si4463/radio_comm.c: 131: void radio_comm_WriteData(U8 cmd, BIT pollCts, U8 byteCount, 
      +                          U8* pData);Si4463/radio_comm.c: 132: {;Si4463/radio_comm.c: 133:     if(pollCts)
  2675     0F7B  1283               	bcf	3,5	;RP0=0, select bank0
  2676     0F7C  1303               	bcf	3,6	;RP1=0, select bank0
  2677     0F7D  0842               	movf	radio_comm_WriteData@pollCts,w
  2678     0F7E  1903               	btfsc	3,2
  2679     0F7F  2F81               	goto	u1501
  2680     0F80  2F82               	goto	u1500
  2681     0F81                     u1501:
  2682     0F81  2F8D               	goto	l2520
  2683     0F82                     u1500:
  2684     0F82  2F86               	goto	l2518
  2685     0F83                     l2516:
  2686                           
  2687                           ;Si4463/radio_comm.c: 136:         {;Si4463/radio_comm.c: 137:             radio_comm_Po
      +                          llCTS();
  2688     0F83  158A  263D  158A   	fcall	_radio_comm_PollCTS
  2689     0F86                     l2518:
  2690                           
  2691                           ;Si4463/radio_comm.c: 135:         while(!ctsWentHigh)
  2692     0F86  1283               	bcf	3,5	;RP0=0, select bank0
  2693     0F87  1303               	bcf	3,6	;RP1=0, select bank0
  2694     0F88  0830               	movf	_ctsWentHigh,w
  2695     0F89  1903               	btfsc	3,2
  2696     0F8A  2F8C               	goto	u1511
  2697     0F8B  2F8D               	goto	u1510
  2698     0F8C                     u1511:
  2699     0F8C  2F83               	goto	l2516
  2700     0F8D                     u1510:
  2701     0F8D                     l2520:
  2702                           
  2703                           ;Si4463/radio_comm.c: 140:     radio_hal_ClearNsel();
  2704     0F8D  158A  260E  158A   	fcall	_radio_hal_ClearNsel
  2705     0F90                     l2522:
  2706                           
  2707                           ;Si4463/radio_comm.c: 141:     radio_hal_SpiWriteByte(cmd);
  2708     0F90  087C               	movf	radio_comm_WriteData@cmd,w
  2709     0F91  158A  2637  158A   	fcall	_radio_hal_SpiWriteByte
  2710     0F94                     l2524:
  2711                           
  2712                           ;Si4463/radio_comm.c: 142:     radio_hal_SpiWriteData(byteCount, pData);
  2713     0F94  1283               	bcf	3,5	;RP0=0, select bank0
  2714     0F95  1303               	bcf	3,6	;RP1=0, select bank0
  2715     0F96  0844               	movf	radio_comm_WriteData@pData,w
  2716     0F97  00F1               	movwf	radio_hal_SpiWriteData@pData
  2717     0F98  0843               	movf	radio_comm_WriteData@byteCount,w
  2718     0F99  158A  270D  158A   	fcall	_radio_hal_SpiWriteData
  2719     0F9C                     l2526:
  2720                           
  2721                           ;Si4463/radio_comm.c: 143:     radio_hal_SetNsel();
  2722     0F9C  158A  2612  158A   	fcall	_radio_hal_SetNsel
  2723     0F9F                     l2528:
  2724                           
  2725                           ;Si4463/radio_comm.c: 144:     ctsWentHigh = 0;
  2726     0F9F  1283               	bcf	3,5	;RP0=0, select bank0
  2727     0FA0  1303               	bcf	3,6	;RP1=0, select bank0
  2728     0FA1  01B0               	clrf	_ctsWentHigh
  2729     0FA2                     l227:
  2730     0FA2  0008               	return
  2731     0FA3                     __end_of_radio_comm_WriteData:
  2732                           
  2733                           	psect	text4
  2734     0EA9                     __ptext4:	
  2735 ;; *************** function _si446x_start_tx *****************
  2736 ;; Defined at:
  2737 ;;		line 134 in file "Si4463/si446x_api_lib.c"
  2738 ;; Parameters:    Size  Location     Type
  2739 ;;  CHANNEL         1    wreg     unsigned char 
  2740 ;;  CONDITION       1    0[BANK0 ] unsigned char 
  2741 ;;  TX_LEN          2    1[BANK0 ] unsigned short 
  2742 ;; Auto vars:     Size  Location     Type
  2743 ;;  CHANNEL         1    3[BANK0 ] unsigned char 
  2744 ;; Return value:  Size  Location     Type
  2745 ;;                  1    wreg      void 
  2746 ;; Registers used:
  2747 ;;		wreg, fsr0l, fsr0h, status,2, status,0, pclath, cstack
  2748 ;; Tracked objects:
  2749 ;;		On entry : 0/0
  2750 ;;		On exit  : 0/0
  2751 ;;		Unchanged: 0/0
  2752 ;; Data sizes:     COMMON   BANK0   BANK1   BANK2
  2753 ;;      Params:         0       3       0       0
  2754 ;;      Locals:         0       1       0       0
  2755 ;;      Temps:          0       0       0       0
  2756 ;;      Totals:         0       4       0       0
  2757 ;;Total ram usage:        4 bytes
  2758 ;; Hardware stack levels used: 1
  2759 ;; Hardware stack levels required when called: 5
  2760 ;; This function calls:
  2761 ;;		_radio_comm_SendCmd
  2762 ;; This function is called by:
  2763 ;;		_vRadio_StartTx_Variable_Packet
  2764 ;; This function uses a non-reentrant model
  2765 ;;
  2766                           
  2767     0EA9                     _si446x_start_tx:	
  2768                           ;psect for function _si446x_start_tx
  2769                           
  2770                           
  2771                           ;incstack = 0
  2772                           ; Regs used in _si446x_start_tx: [wreg-fsr0h+status,2+status,0+pclath+cstack]
  2773                           ;si446x_start_tx@CHANNEL stored from wreg
  2774     0EA9  1283               	bcf	3,5	;RP0=0, select bank0
  2775     0EAA  1303               	bcf	3,6	;RP1=0, select bank0
  2776     0EAB  00C5               	movwf	si446x_start_tx@CHANNEL
  2777     0EAC                     l2588:
  2778                           
  2779                           ;Si4463/si446x_api_lib.c: 134: void si446x_start_tx(U8 CHANNEL, U8 CONDITION, U16 TX_LEN
      +                          );Si4463/si446x_api_lib.c: 135: {;Si4463/si446x_api_lib.c: 136:     Pro2Cmd[0] = 0x31;
  2780     0EAC  3031               	movlw	49
  2781     0EAD  00B2               	movwf	_Pro2Cmd
  2782                           
  2783                           ;Si4463/si446x_api_lib.c: 137:     Pro2Cmd[1] = CHANNEL;
  2784     0EAE  0845               	movf	si446x_start_tx@CHANNEL,w
  2785     0EAF  00B3               	movwf	_Pro2Cmd+1
  2786                           
  2787                           ;Si4463/si446x_api_lib.c: 138:     Pro2Cmd[2] = CONDITION;
  2788     0EB0  0842               	movf	si446x_start_tx@CONDITION,w
  2789     0EB1  00B4               	movwf	_Pro2Cmd+2
  2790     0EB2                     l2590:
  2791                           
  2792                           ;Si4463/si446x_api_lib.c: 139:     Pro2Cmd[3] = (U8)(TX_LEN >> 8);
  2793     0EB2  0844               	movf	si446x_start_tx@TX_LEN+1,w
  2794     0EB3  00B5               	movwf	_Pro2Cmd+3
  2795     0EB4                     l2592:
  2796                           
  2797                           ;Si4463/si446x_api_lib.c: 140:     Pro2Cmd[4] = (U8)(TX_LEN);
  2798     0EB4  0843               	movf	si446x_start_tx@TX_LEN,w
  2799     0EB5  00B6               	movwf	_Pro2Cmd+4
  2800     0EB6                     l2594:
  2801                           
  2802                           ;Si4463/si446x_api_lib.c: 141:     Pro2Cmd[5] = 0x00;
  2803     0EB6  01B7               	clrf	_Pro2Cmd+5
  2804     0EB7                     l2596:
  2805                           
  2806                           ;Si4463/si446x_api_lib.c: 145:     Pro2Cmd[6] = 0x00;
  2807     0EB7  01B8               	clrf	_Pro2Cmd+6
  2808     0EB8                     l2598:
  2809                           
  2810                           ;Si4463/si446x_api_lib.c: 147:     radio_comm_SendCmd( 7, Pro2Cmd );
  2811     0EB8  3032               	movlw	(low (_Pro2Cmd| 0))& (0+255)
  2812     0EB9  00FC               	movwf	radio_comm_SendCmd@pData
  2813     0EBA  3007               	movlw	7
  2814     0EBB  158A  26F1  158A   	fcall	_radio_comm_SendCmd
  2815     0EBE                     l346:
  2816     0EBE  0008               	return
  2817     0EBF                     __end_of_si446x_start_tx:
  2818                           
  2819                           	psect	text5
  2820     0EBF                     __ptext5:	
  2821 ;; *************** function _si446x_fifo_info *****************
  2822 ;; Defined at:
  2823 ;;		line 305 in file "Si4463/si446x_api_lib.c"
  2824 ;; Parameters:    Size  Location     Type
  2825 ;;  FIFO            1    wreg     unsigned char 
  2826 ;; Auto vars:     Size  Location     Type
  2827 ;;  FIFO            1    4[BANK0 ] unsigned char 
  2828 ;; Return value:  Size  Location     Type
  2829 ;;                  1    wreg      void 
  2830 ;; Registers used:
  2831 ;;		wreg, fsr0l, fsr0h, status,2, status,0, pclath, cstack
  2832 ;; Tracked objects:
  2833 ;;		On entry : 0/0
  2834 ;;		On exit  : 0/0
  2835 ;;		Unchanged: 0/0
  2836 ;; Data sizes:     COMMON   BANK0   BANK1   BANK2
  2837 ;;      Params:         0       0       0       0
  2838 ;;      Locals:         0       1       0       0
  2839 ;;      Temps:          0       0       0       0
  2840 ;;      Totals:         0       1       0       0
  2841 ;;Total ram usage:        1 bytes
  2842 ;; Hardware stack levels used: 1
  2843 ;; Hardware stack levels required when called: 6
  2844 ;; This function calls:
  2845 ;;		_radio_comm_SendCmdGetResp
  2846 ;; This function is called by:
  2847 ;;		_vRadio_StartTx_Variable_Packet
  2848 ;;		_bRadio_Check_Tx_RX
  2849 ;;		_vRadio_StartRX
  2850 ;; This function uses a non-reentrant model
  2851 ;;
  2852                           
  2853     0EBF                     _si446x_fifo_info:	
  2854                           ;psect for function _si446x_fifo_info
  2855                           
  2856                           
  2857                           ;incstack = 0
  2858                           ; Regs used in _si446x_fifo_info: [wreg-fsr0h+status,2+status,0+pclath+cstack]
  2859                           ;si446x_fifo_info@FIFO stored from wreg
  2860     0EBF  1283               	bcf	3,5	;RP0=0, select bank0
  2861     0EC0  1303               	bcf	3,6	;RP1=0, select bank0
  2862     0EC1  00C6               	movwf	si446x_fifo_info@FIFO
  2863     0EC2                     l2578:
  2864                           
  2865                           ;Si4463/si446x_api_lib.c: 305: void si446x_fifo_info(U8 FIFO);Si4463/si446x_api_lib.c: 3
      +                          06: {;Si4463/si446x_api_lib.c: 307:     Pro2Cmd[0] = 0x15;
  2866     0EC2  3015               	movlw	21
  2867     0EC3  00B2               	movwf	_Pro2Cmd
  2868                           
  2869                           ;Si4463/si446x_api_lib.c: 308:     Pro2Cmd[1] = FIFO;
  2870     0EC4  0846               	movf	si446x_fifo_info@FIFO,w
  2871     0EC5  00B3               	movwf	_Pro2Cmd+1
  2872     0EC6                     l2580:
  2873                           
  2874                           ;Si4463/si446x_api_lib.c: 310:     radio_comm_SendCmdGetResp( 2,
  2875     0EC6  3032               	movlw	(low (_Pro2Cmd| 0))& (0+255)
  2876     0EC7  00C2               	movwf	radio_comm_SendCmdGetResp@pCmdData
  2877     0EC8  3002               	movlw	2
  2878     0EC9  00C3               	movwf	radio_comm_SendCmdGetResp@respByteCount
  2879     0ECA  3032               	movlw	(low (_Pro2Cmd| 0))& (0+255)
  2880     0ECB  00C4               	movwf	radio_comm_SendCmdGetResp@pRespData
  2881     0ECC  3002               	movlw	2
  2882     0ECD  158A  2681  158A   	fcall	_radio_comm_SendCmdGetResp
  2883     0ED0                     l2582:
  2884                           
  2885                           ;Si4463/si446x_api_lib.c: 315:     Si446xCmd.FIFO_INFO.RX_FIFO_COUNT = Pro2Cmd[0];
  2886     0ED0  1283               	bcf	3,5	;RP0=0, select bank0
  2887     0ED1  1303               	bcf	3,6	;RP1=0, select bank0
  2888     0ED2  0832               	movf	_Pro2Cmd,w
  2889     0ED3  00A0               	movwf	_Si446xCmd
  2890     0ED4                     l2584:
  2891                           
  2892                           ;Si4463/si446x_api_lib.c: 316:     Si446xCmd.FIFO_INFO.TX_FIFO_SPACE = Pro2Cmd[1];
  2893     0ED4  0833               	movf	_Pro2Cmd+1,w
  2894     0ED5  00A1               	movwf	_Si446xCmd+1
  2895     0ED6                     l370:
  2896     0ED6  0008               	return
  2897     0ED7                     __end_of_si446x_fifo_info:
  2898                           
  2899                           	psect	text6
  2900     0E64                     __ptext6:	
  2901 ;; *************** function _si446x_change_state *****************
  2902 ;; Defined at:
  2903 ;;		line 278 in file "Si4463/si446x_api_lib.c"
  2904 ;; Parameters:    Size  Location     Type
  2905 ;;  NEXT_STATE1     1    wreg     unsigned char 
  2906 ;; Auto vars:     Size  Location     Type
  2907 ;;  NEXT_STATE1     1    0[BANK0 ] unsigned char 
  2908 ;; Return value:  Size  Location     Type
  2909 ;;                  1    wreg      void 
  2910 ;; Registers used:
  2911 ;;		wreg, fsr0l, fsr0h, status,2, status,0, pclath, cstack
  2912 ;; Tracked objects:
  2913 ;;		On entry : 0/0
  2914 ;;		On exit  : 0/0
  2915 ;;		Unchanged: 0/0
  2916 ;; Data sizes:     COMMON   BANK0   BANK1   BANK2
  2917 ;;      Params:         0       0       0       0
  2918 ;;      Locals:         0       1       0       0
  2919 ;;      Temps:          0       0       0       0
  2920 ;;      Totals:         0       1       0       0
  2921 ;;Total ram usage:        1 bytes
  2922 ;; Hardware stack levels used: 1
  2923 ;; Hardware stack levels required when called: 5
  2924 ;; This function calls:
  2925 ;;		_radio_comm_SendCmd
  2926 ;; This function is called by:
  2927 ;;		_vRadio_StartTx_Variable_Packet
  2928 ;;		_bRadio_Check_Tx_RX
  2929 ;; This function uses a non-reentrant model
  2930 ;;
  2931                           
  2932     0E64                     _si446x_change_state:	
  2933                           ;psect for function _si446x_change_state
  2934                           
  2935                           
  2936                           ;incstack = 0
  2937                           ; Regs used in _si446x_change_state: [wreg-fsr0h+status,2+status,0+pclath+cstack]
  2938                           ;si446x_change_state@NEXT_STATE1 stored from wreg
  2939     0E64  1283               	bcf	3,5	;RP0=0, select bank0
  2940     0E65  1303               	bcf	3,6	;RP1=0, select bank0
  2941     0E66  00C2               	movwf	si446x_change_state@NEXT_STATE1
  2942     0E67                     l2574:
  2943                           
  2944                           ;Si4463/si446x_api_lib.c: 278: void si446x_change_state(U8 NEXT_STATE1);Si4463/si446x_ap
      +                          i_lib.c: 279: {;Si4463/si446x_api_lib.c: 280:     Pro2Cmd[0] = 0x34;
  2945     0E67  3034               	movlw	52
  2946     0E68  00B2               	movwf	_Pro2Cmd
  2947                           
  2948                           ;Si4463/si446x_api_lib.c: 281:     Pro2Cmd[1] = NEXT_STATE1;
  2949     0E69  0842               	movf	si446x_change_state@NEXT_STATE1,w
  2950     0E6A  00B3               	movwf	_Pro2Cmd+1
  2951     0E6B                     l2576:
  2952                           
  2953                           ;Si4463/si446x_api_lib.c: 283:     radio_comm_SendCmd( 2, Pro2Cmd );
  2954     0E6B  3032               	movlw	(low (_Pro2Cmd| 0))& (0+255)
  2955     0E6C  00FC               	movwf	radio_comm_SendCmd@pData
  2956     0E6D  3002               	movlw	2
  2957     0E6E  158A  26F1  158A   	fcall	_radio_comm_SendCmd
  2958     0E71                     l364:
  2959     0E71  0008               	return
  2960     0E72                     __end_of_si446x_change_state:
  2961                           
  2962                           	psect	text7
  2963     006D                     __ptext7:	
  2964 ;; *************** function _vRadio_Init *****************
  2965 ;; Defined at:
  2966 ;;		line 52 in file "Si4463/radio.c"
  2967 ;; Parameters:    Size  Location     Type
  2968 ;;		None
  2969 ;; Auto vars:     Size  Location     Type
  2970 ;;  wDelay          2   13[BANK0 ] unsigned short 
  2971 ;; Return value:  Size  Location     Type
  2972 ;;                  1    wreg      void 
  2973 ;; Registers used:
  2974 ;;		wreg, fsr0l, fsr0h, status,2, status,0, btemp+1, pclath, cstack
  2975 ;; Tracked objects:
  2976 ;;		On entry : 0/0
  2977 ;;		On exit  : 0/0
  2978 ;;		Unchanged: 0/0
  2979 ;; Data sizes:     COMMON   BANK0   BANK1   BANK2
  2980 ;;      Params:         0       0       0       0
  2981 ;;      Locals:         0       2       0       0
  2982 ;;      Temps:          0       2       0       0
  2983 ;;      Totals:         0       4       0       0
  2984 ;;Total ram usage:        4 bytes
  2985 ;; Hardware stack levels used: 1
  2986 ;; Hardware stack levels required when called: 8
  2987 ;; This function calls:
  2988 ;;		_si446x_configuration_init
  2989 ;;		_si446x_get_int_status
  2990 ;;		_vRadio_PowerUp
  2991 ;; This function is called by:
  2992 ;;		_main
  2993 ;; This function uses a non-reentrant model
  2994 ;;
  2995                           
  2996     006D                     _vRadio_Init:	
  2997                           ;psect for function _vRadio_Init
  2998                           
  2999     006D                     l2600:	
  3000                           ;incstack = 0
  3001 ;; hardware stack exceeded
  3002                           ; Regs used in _vRadio_Init: [wreg-fsr0h+status,2+status,0+btemp+1+pclath+cstack]
  3003                           
  3004                           
  3005                           ;Si4463/radio.c: 53:     U16 wDelay;;Si4463/radio.c: 56:     vRadio_PowerUp();
  3006     006D  118A  27D9  118A   	fcall	_vRadio_PowerUp
  3007                           
  3008                           ;Si4463/radio.c: 59:     while (SI446X_SUCCESS != si446x_configuration_init(pRadioConfig
      +                          uration->Radio_ConfigurationArray)) {
  3009     0070  2886               	goto	l156
  3010     0071                     l2602:
  3011                           
  3012                           ;Si4463/radio.c: 60:         for (wDelay = 0x7FFF; wDelay--; ) ;
  3013     0071  30FF               	movlw	255
  3014     0072  1283               	bcf	3,5	;RP0=0, select bank0
  3015     0073  1303               	bcf	3,6	;RP1=0, select bank0
  3016     0074  00CF               	movwf	vRadio_Init@wDelay
  3017     0075  307F               	movlw	127
  3018     0076  00D0               	movwf	vRadio_Init@wDelay+1
  3019     0077                     l2604:
  3020     0077  3001               	movlw	1
  3021     0078  02CF               	subwf	vRadio_Init@wDelay,f
  3022     0079  3000               	movlw	0
  3023     007A  1C03               	skipc
  3024     007B  03D0               	decf	vRadio_Init@wDelay+1,f
  3025     007C  02D0               	subwf	vRadio_Init@wDelay+1,f
  3026     007D  0A4F               	incf	vRadio_Init@wDelay,w
  3027     007E  1D03               	skipz
  3028     007F  2884               	goto	u1581
  3029     0080  0A50               	incf	vRadio_Init@wDelay+1,w
  3030     0081  1D03               	btfss	3,2
  3031     0082  2884               	goto	u1581
  3032     0083  2885               	goto	u1580
  3033     0084                     u1581:
  3034     0084  2877               	goto	l2604
  3035     0085                     u1580:
  3036     0085  286D               	goto	l2600
  3037     0086                     l156:	
  3038                           ;Si4463/radio.c: 62:     }
  3039                           
  3040                           
  3041                           ;Si4463/radio.c: 59:     while (SI446X_SUCCESS != si446x_configuration_init(pRadioConfig
      +                          uration->Radio_ConfigurationArray)) {
  3042     0086  30E6               	movlw	low (_RadioConfiguration| (0+32768))
  3043     0087  0084               	movwf	4
  3044     0088  3084               	movlw	high (_RadioConfiguration| (0+32768))
  3045     0089  1283               	bcf	3,5	;RP0=0, select bank0
  3046     008A  1303               	bcf	3,6	;RP1=0, select bank0
  3047     008B  00FF               	movwf	btemp+1
  3048     008C  118A  2100  118A   	fcall	stringtab
  3049     008F  00CD               	movwf	??_vRadio_Init
  3050     0090  118A  2100  118A   	fcall	stringtab
  3051     0093  00CE               	movwf	??_vRadio_Init+1
  3052     0094  084D               	movf	??_vRadio_Init,w
  3053     0095  00C9               	movwf	si446x_configuration_init@pSetPropCmd
  3054     0096  084E               	movf	??_vRadio_Init+1,w
  3055     0097  00CA               	movwf	si446x_configuration_init@pSetPropCmd+1
  3056     0098  118A  26BC  118A   	fcall	_si446x_configuration_init
  3057     009B  3A00               	xorlw	0
  3058     009C  1D03               	skipz
  3059     009D  289F               	goto	u1591
  3060     009E  28A0               	goto	u1590
  3061     009F                     u1591:
  3062     009F  2871               	goto	l2602
  3063     00A0                     u1590:
  3064     00A0                     l2608:
  3065                           
  3066                           ;Si4463/radio.c: 65:     si446x_get_int_status(0u, 0u, 0u);
  3067     00A0  1283               	bcf	3,5	;RP0=0, select bank0
  3068     00A1  1303               	bcf	3,6	;RP1=0, select bank0
  3069     00A2  01C6               	clrf	si446x_get_int_status@MODEM_CLR_PEND
  3070     00A3  01C7               	clrf	si446x_get_int_status@CHIP_CLR_PEND
  3071     00A4  3000               	movlw	0
  3072     00A5  158A  2752  118A   	fcall	_si446x_get_int_status
  3073     00A8                     l162:
  3074     00A8  0008               	return
  3075     00A9                     __end_of_vRadio_Init:
  3076                           
  3077                           	psect	text8
  3078     07D9                     __ptext8:	
  3079 ;; *************** function _vRadio_PowerUp *****************
  3080 ;; Defined at:
  3081 ;;		line 35 in file "Si4463/radio.c"
  3082 ;; Parameters:    Size  Location     Type
  3083 ;;		None
  3084 ;; Auto vars:     Size  Location     Type
  3085 ;;  wDelay          2    3[COMMON] unsigned short 
  3086 ;; Return value:  Size  Location     Type
  3087 ;;                  1    wreg      void 
  3088 ;; Registers used:
  3089 ;;		wreg, fsr0l, fsr0h, status,2, status,0, btemp+1, pclath, cstack
  3090 ;; Tracked objects:
  3091 ;;		On entry : 0/0
  3092 ;;		On exit  : 0/0
  3093 ;;		Unchanged: 0/0
  3094 ;; Data sizes:     COMMON   BANK0   BANK1   BANK2
  3095 ;;      Params:         0       0       0       0
  3096 ;;      Locals:         2       0       0       0
  3097 ;;      Temps:          2       0       0       0
  3098 ;;      Totals:         4       0       0       0
  3099 ;;Total ram usage:        4 bytes
  3100 ;; Hardware stack levels used: 1
  3101 ;; Hardware stack levels required when called: 2
  3102 ;; This function calls:
  3103 ;;		_si446x_reset
  3104 ;; This function is called by:
  3105 ;;		_vRadio_Init
  3106 ;; This function uses a non-reentrant model
  3107 ;;
  3108                           
  3109     07D9                     _vRadio_PowerUp:	
  3110                           ;psect for function _vRadio_PowerUp
  3111                           
  3112     07D9                     l1962:	
  3113                           ;incstack = 0
  3114                           ; Regs used in _vRadio_PowerUp: [wreg-fsr0h+status,2+status,0+btemp+1+pclath+cstack]
  3115                           
  3116                           
  3117                           ;Si4463/radio.c: 36:  U16 wDelay = 0u;
  3118     07D9  01F3               	clrf	vRadio_PowerUp@wDelay
  3119     07DA  01F4               	clrf	vRadio_PowerUp@wDelay+1
  3120     07DB                     l1964:
  3121                           
  3122                           ;Si4463/radio.c: 38:     si446x_reset();
  3123     07DB  118A  20E3  118A   	fcall	_si446x_reset
  3124                           
  3125                           ;Si4463/radio.c: 41:     for (; wDelay < pRadioConfiguration->Radio_Delay_Cnt_After_Rese
      +                          t; wDelay++);
  3126     07DE  2FE5               	goto	l1968
  3127     07DF                     l1966:
  3128     07DF  3001               	movlw	1
  3129     07E0  07F3               	addwf	vRadio_PowerUp@wDelay,f
  3130     07E1  1803               	skipnc
  3131     07E2  0AF4               	incf	vRadio_PowerUp@wDelay+1,f
  3132     07E3  3000               	movlw	0
  3133     07E4  07F4               	addwf	vRadio_PowerUp@wDelay+1,f
  3134     07E5                     l1968:
  3135     07E5  30EB               	movlw	low ((_RadioConfiguration+5)| (0+32768))
  3136     07E6  0084               	movwf	4
  3137     07E7  3084               	movlw	high ((_RadioConfiguration+5)| (0+32768))
  3138     07E8  1283               	bcf	3,5	;RP0=0, select bank0
  3139     07E9  1303               	bcf	3,6	;RP1=0, select bank0
  3140     07EA  00FF               	movwf	btemp+1
  3141     07EB  118A  2100  118A   	fcall	stringtab
  3142     07EE  00F1               	movwf	??_vRadio_PowerUp
  3143     07EF  118A  2100  118A   	fcall	stringtab
  3144     07F2  00F2               	movwf	??_vRadio_PowerUp+1
  3145     07F3  0872               	movf	??_vRadio_PowerUp+1,w
  3146     07F4  0274               	subwf	vRadio_PowerUp@wDelay+1,w
  3147     07F5  1D03               	skipz
  3148     07F6  2FF9               	goto	u995
  3149     07F7  0871               	movf	??_vRadio_PowerUp,w
  3150     07F8  0273               	subwf	vRadio_PowerUp@wDelay,w
  3151     07F9                     u995:
  3152     07F9  1C03               	skipc
  3153     07FA  2FFC               	goto	u991
  3154     07FB  2FFD               	goto	u990
  3155     07FC                     u991:
  3156     07FC  2FDF               	goto	l1966
  3157     07FD                     u990:
  3158     07FD                     l153:
  3159     07FD  0008               	return
  3160     07FE                     __end_of_vRadio_PowerUp:
  3161                           
  3162                           	psect	text9
  3163     00E3                     __ptext9:	
  3164 ;; *************** function _si446x_reset *****************
  3165 ;; Defined at:
  3166 ;;		line 23 in file "Si4463/si446x_api_lib.c"
  3167 ;; Parameters:    Size  Location     Type
  3168 ;;		None
  3169 ;; Auto vars:     Size  Location     Type
  3170 ;;  loopCount       1    0[COMMON] unsigned char 
  3171 ;; Return value:  Size  Location     Type
  3172 ;;                  1    wreg      void 
  3173 ;; Registers used:
  3174 ;;		wreg, status,2, status,0, pclath, cstack
  3175 ;; Tracked objects:
  3176 ;;		On entry : 0/0
  3177 ;;		On exit  : 0/0
  3178 ;;		Unchanged: 0/0
  3179 ;; Data sizes:     COMMON   BANK0   BANK1   BANK2
  3180 ;;      Params:         0       0       0       0
  3181 ;;      Locals:         1       0       0       0
  3182 ;;      Temps:          0       0       0       0
  3183 ;;      Totals:         1       0       0       0
  3184 ;;Total ram usage:        1 bytes
  3185 ;; Hardware stack levels used: 1
  3186 ;; Hardware stack levels required when called: 1
  3187 ;; This function calls:
  3188 ;;		_radio_comm_ClearCTS
  3189 ;;		_radio_hal_AssertShutdown
  3190 ;;		_radio_hal_DeassertShutdown
  3191 ;; This function is called by:
  3192 ;;		_vRadio_PowerUp
  3193 ;; This function uses a non-reentrant model
  3194 ;;
  3195                           
  3196     00E3                     _si446x_reset:	
  3197                           ;psect for function _si446x_reset
  3198                           
  3199     00E3                     l1814:	
  3200                           ;incstack = 0
  3201                           ; Regs used in _si446x_reset: [wreg+status,2+status,0+pclath+cstack]
  3202                           
  3203                           
  3204                           ;Si4463/si446x_api_lib.c: 25:     U8 loopCount;;Si4463/si446x_api_lib.c: 28:     radio_h
      +                          al_AssertShutdown();
  3205     00E3  158A  261A  118A   	fcall	_radio_hal_AssertShutdown
  3206     00E6                     l1816:
  3207                           
  3208                           ;Si4463/si446x_api_lib.c: 30:     for (loopCount = 255; loopCount != 0; loopCount--);
  3209     00E6  30FF               	movlw	255
  3210     00E7  00F0               	movwf	si446x_reset@loopCount
  3211     00E8                     l1822:
  3212     00E8  3001               	movlw	1
  3213     00E9  02F0               	subwf	si446x_reset@loopCount,f
  3214     00EA  0870               	movf	si446x_reset@loopCount,w
  3215     00EB  1D03               	btfss	3,2
  3216     00EC  28EE               	goto	u821
  3217     00ED  28EF               	goto	u820
  3218     00EE                     u821:
  3219     00EE  28E8               	goto	l1822
  3220     00EF                     u820:
  3221     00EF                     l1824:
  3222                           
  3223                           ;Si4463/si446x_api_lib.c: 31:     radio_hal_DeassertShutdown();
  3224     00EF  158A  261E  118A   	fcall	_radio_hal_DeassertShutdown
  3225     00F2                     l1826:
  3226                           
  3227                           ;Si4463/si446x_api_lib.c: 32:     for (loopCount = 255; loopCount != 0; loopCount--);
  3228     00F2  30FF               	movlw	255
  3229     00F3  00F0               	movwf	si446x_reset@loopCount
  3230     00F4                     l1832:
  3231     00F4  3001               	movlw	1
  3232     00F5  02F0               	subwf	si446x_reset@loopCount,f
  3233     00F6  0870               	movf	si446x_reset@loopCount,w
  3234     00F7  1D03               	btfss	3,2
  3235     00F8  28FA               	goto	u831
  3236     00F9  28FB               	goto	u830
  3237     00FA                     u831:
  3238     00FA  28F4               	goto	l1832
  3239     00FB                     u830:
  3240     00FB                     l1834:
  3241                           
  3242                           ;Si4463/si446x_api_lib.c: 33:     radio_comm_ClearCTS();
  3243     00FB  158A  2616  118A   	fcall	_radio_comm_ClearCTS
  3244     00FE                     l324:
  3245     00FE  0008               	return
  3246     00FF                     __end_of_si446x_reset:
  3247                           
  3248                           	psect	text10
  3249     0E1E                     __ptext10:	
  3250 ;; *************** function _radio_hal_DeassertShutdown *****************
  3251 ;; Defined at:
  3252 ;;		line 7 in file "Si4463/radio_hal.c"
  3253 ;; Parameters:    Size  Location     Type
  3254 ;;		None
  3255 ;; Auto vars:     Size  Location     Type
  3256 ;;		None
  3257 ;; Return value:  Size  Location     Type
  3258 ;;                  1    wreg      void 
  3259 ;; Registers used:
  3260 ;;		None
  3261 ;; Tracked objects:
  3262 ;;		On entry : 0/0
  3263 ;;		On exit  : 0/0
  3264 ;;		Unchanged: 0/0
  3265 ;; Data sizes:     COMMON   BANK0   BANK1   BANK2
  3266 ;;      Params:         0       0       0       0
  3267 ;;      Locals:         0       0       0       0
  3268 ;;      Temps:          0       0       0       0
  3269 ;;      Totals:         0       0       0       0
  3270 ;;Total ram usage:        0 bytes
  3271 ;; Hardware stack levels used: 1
  3272 ;; This function calls:
  3273 ;;		Nothing
  3274 ;; This function is called by:
  3275 ;;		_si446x_reset
  3276 ;; This function uses a non-reentrant model
  3277 ;;
  3278                           
  3279     0E1E                     _radio_hal_DeassertShutdown:	
  3280                           ;psect for function _radio_hal_DeassertShutdown
  3281                           
  3282     0E1E                     l1812:	
  3283                           ;incstack = 0
  3284                           ; Regs used in _radio_hal_DeassertShutdown: []
  3285                           
  3286                           
  3287                           ;Si4463/radio_hal.c: 8:     RB1 = 0;
  3288     0E1E  1283               	bcf	3,5	;RP0=0, select bank0
  3289     0E1F  1303               	bcf	3,6	;RP1=0, select bank0
  3290     0E20  1086               	bcf	6,1	;volatile
  3291     0E21                     l252:
  3292     0E21  0008               	return
  3293     0E22                     __end_of_radio_hal_DeassertShutdown:
  3294                           
  3295                           	psect	text11
  3296     0E1A                     __ptext11:	
  3297 ;; *************** function _radio_hal_AssertShutdown *****************
  3298 ;; Defined at:
  3299 ;;		line 3 in file "Si4463/radio_hal.c"
  3300 ;; Parameters:    Size  Location     Type
  3301 ;;		None
  3302 ;; Auto vars:     Size  Location     Type
  3303 ;;		None
  3304 ;; Return value:  Size  Location     Type
  3305 ;;                  1    wreg      void 
  3306 ;; Registers used:
  3307 ;;		None
  3308 ;; Tracked objects:
  3309 ;;		On entry : 0/0
  3310 ;;		On exit  : 0/0
  3311 ;;		Unchanged: 0/0
  3312 ;; Data sizes:     COMMON   BANK0   BANK1   BANK2
  3313 ;;      Params:         0       0       0       0
  3314 ;;      Locals:         0       0       0       0
  3315 ;;      Temps:          0       0       0       0
  3316 ;;      Totals:         0       0       0       0
  3317 ;;Total ram usage:        0 bytes
  3318 ;; Hardware stack levels used: 1
  3319 ;; This function calls:
  3320 ;;		Nothing
  3321 ;; This function is called by:
  3322 ;;		_si446x_reset
  3323 ;; This function uses a non-reentrant model
  3324 ;;
  3325                           
  3326     0E1A                     _radio_hal_AssertShutdown:	
  3327                           ;psect for function _radio_hal_AssertShutdown
  3328                           
  3329     0E1A                     l1810:	
  3330                           ;incstack = 0
  3331                           ; Regs used in _radio_hal_AssertShutdown: []
  3332                           
  3333                           
  3334                           ;Si4463/radio_hal.c: 4:     RB1 = 1;
  3335     0E1A  1283               	bcf	3,5	;RP0=0, select bank0
  3336     0E1B  1303               	bcf	3,6	;RP1=0, select bank0
  3337     0E1C  1486               	bsf	6,1	;volatile
  3338     0E1D                     l249:
  3339     0E1D  0008               	return
  3340     0E1E                     __end_of_radio_hal_AssertShutdown:
  3341                           
  3342                           	psect	text12
  3343     0E16                     __ptext12:	
  3344 ;; *************** function _radio_comm_ClearCTS *****************
  3345 ;; Defined at:
  3346 ;;		line 160 in file "Si4463/radio_comm.c"
  3347 ;; Parameters:    Size  Location     Type
  3348 ;;		None
  3349 ;; Auto vars:     Size  Location     Type
  3350 ;;		None
  3351 ;; Return value:  Size  Location     Type
  3352 ;;                  1    wreg      void 
  3353 ;; Registers used:
  3354 ;;		status,2
  3355 ;; Tracked objects:
  3356 ;;		On entry : 0/0
  3357 ;;		On exit  : 0/0
  3358 ;;		Unchanged: 0/0
  3359 ;; Data sizes:     COMMON   BANK0   BANK1   BANK2
  3360 ;;      Params:         0       0       0       0
  3361 ;;      Locals:         0       0       0       0
  3362 ;;      Temps:          0       0       0       0
  3363 ;;      Totals:         0       0       0       0
  3364 ;;Total ram usage:        0 bytes
  3365 ;; Hardware stack levels used: 1
  3366 ;; This function calls:
  3367 ;;		Nothing
  3368 ;; This function is called by:
  3369 ;;		_si446x_reset
  3370 ;; This function uses a non-reentrant model
  3371 ;;
  3372                           
  3373     0E16                     _radio_comm_ClearCTS:	
  3374                           ;psect for function _radio_comm_ClearCTS
  3375                           
  3376     0E16                     l1804:	
  3377                           ;incstack = 0
  3378                           ; Regs used in _radio_comm_ClearCTS: [status,2]
  3379                           
  3380                           
  3381                           ;Si4463/radio_comm.c: 162:     ctsWentHigh = 0;
  3382     0E16  1283               	bcf	3,5	;RP0=0, select bank0
  3383     0E17  1303               	bcf	3,6	;RP1=0, select bank0
  3384     0E18  01B0               	clrf	_ctsWentHigh
  3385     0E19                     l233:
  3386     0E19  0008               	return
  3387     0E1A                     __end_of_radio_comm_ClearCTS:
  3388                           
  3389                           	psect	text13
  3390     06BC                     __ptext13:	
  3391 ;; *************** function _si446x_configuration_init *****************
  3392 ;; Defined at:
  3393 ;;		line 57 in file "Si4463/si446x_api_lib.c"
  3394 ;; Parameters:    Size  Location     Type
  3395 ;;  pSetPropCmd     2    7[BANK0 ] PTR const unsigned char 
  3396 ;;		 -> Radio_Configuration_Data_Array(970), 
  3397 ;; Auto vars:     Size  Location     Type
  3398 ;;  numOfBytes      1   10[BANK0 ] unsigned char 
  3399 ;;  col             1    9[BANK0 ] unsigned char 
  3400 ;;  t               1    0        unsigned char 
  3401 ;; Return value:  Size  Location     Type
  3402 ;;                  1    wreg      unsigned char 
  3403 ;; Registers used:
  3404 ;;		wreg, fsr0l, fsr0h, status,2, status,0, btemp+1, pclath, cstack
  3405 ;; Tracked objects:
  3406 ;;		On entry : 0/0
  3407 ;;		On exit  : 0/0
  3408 ;;		Unchanged: 0/0
  3409 ;; Data sizes:     COMMON   BANK0   BANK1   BANK2
  3410 ;;      Params:         0       2       0       0
  3411 ;;      Locals:         0       2       0       0
  3412 ;;      Temps:          0       0       0       0
  3413 ;;      Totals:         0       4       0       0
  3414 ;;Total ram usage:        4 bytes
  3415 ;; Hardware stack levels used: 1
  3416 ;; Hardware stack levels required when called: 7
  3417 ;; This function calls:
  3418 ;;		_radio_comm_SendCmdGetResp
  3419 ;;		_radio_hal_NirqLevel
  3420 ;;		_si446x_get_int_status
  3421 ;; This function is called by:
  3422 ;;		_vRadio_Init
  3423 ;; This function uses a non-reentrant model
  3424 ;;
  3425                           
  3426     06BC                     _si446x_configuration_init:	
  3427                           ;psect for function _si446x_configuration_init
  3428                           
  3429     06BC                     l2530:	
  3430                           ;incstack = 0
  3431 ;; hardware stack exceeded
  3432                           ; Regs used in _si446x_configuration_init: [wreg-fsr0h+status,2+status,0+btemp+1+pclath+
      +                          cstack]
  3433                           
  3434                           
  3435                           ;Si4463/si446x_api_lib.c: 57: U8 si446x_configuration_init(const U8* pSetPropCmd);Si4463
      +                          /si446x_api_lib.c: 58: {;Si4463/si446x_api_lib.c: 59:  U8 col;;Si4463/si446x_api_lib.c: 
      +                          60:  U8 numOfBytes;;Si4463/si446x_api_lib.c: 61:  U8 t;;Si4463/si446x_api_lib.c: 63:   w
      +                          hile (*pSetPropCmd != 0x00)
  3436     06BC  2F19               	goto	l2568
  3437     06BD                     l2532:
  3438                           
  3439                           ;Si4463/si446x_api_lib.c: 64:   {;Si4463/si446x_api_lib.c: 70:     numOfBytes = *pSetPro
      +                          pCmd++;
  3440     06BD  084A               	movf	si446x_configuration_init@pSetPropCmd+1,w
  3441     06BE  00FF               	movwf	btemp+1
  3442     06BF  0849               	movf	si446x_configuration_init@pSetPropCmd,w
  3443     06C0  0084               	movwf	4
  3444     06C1  118A  2100  118A   	fcall	stringtab
  3445     06C4  00CC               	movwf	si446x_configuration_init@numOfBytes
  3446     06C5                     l2534:
  3447     06C5  3001               	movlw	1
  3448     06C6  07C9               	addwf	si446x_configuration_init@pSetPropCmd,f
  3449     06C7  1803               	skipnc
  3450     06C8  0ACA               	incf	si446x_configuration_init@pSetPropCmd+1,f
  3451     06C9  3000               	movlw	0
  3452     06CA  07CA               	addwf	si446x_configuration_init@pSetPropCmd+1,f
  3453     06CB                     l2536:
  3454                           
  3455                           ;Si4463/si446x_api_lib.c: 74:     if (numOfBytes > 16u)
  3456     06CB  3011               	movlw	17
  3457     06CC  024C               	subwf	si446x_configuration_init@numOfBytes,w
  3458     06CD  1C03               	skipc
  3459     06CE  2ED0               	goto	u1521
  3460     06CF  2ED1               	goto	u1520
  3461     06D0                     u1521:
  3462     06D0  2ED3               	goto	l2542
  3463     06D1                     u1520:
  3464     06D1                     l2538:
  3465                           
  3466                           ;Si4463/si446x_api_lib.c: 75:     {;Si4463/si446x_api_lib.c: 77:       return SI446X_COM
      +                          MAND_ERROR;
  3467     06D1  3004               	movlw	4
  3468     06D2  2F28               	goto	l333
  3469     06D3                     l2542:
  3470                           
  3471                           ;Si4463/si446x_api_lib.c: 80:     for (col = 0u; col < numOfBytes; col++)
  3472     06D3  01CB               	clrf	si446x_configuration_init@col
  3473     06D4  2EED               	goto	l2550
  3474     06D5                     l2544:
  3475                           
  3476                           ;Si4463/si446x_api_lib.c: 81:     {;Si4463/si446x_api_lib.c: 82:       Pro2Cmd[col] = *p
      +                          SetPropCmd;
  3477     06D5  084A               	movf	si446x_configuration_init@pSetPropCmd+1,w
  3478     06D6  00FF               	movwf	btemp+1
  3479     06D7  0849               	movf	si446x_configuration_init@pSetPropCmd,w
  3480     06D8  0084               	movwf	4
  3481     06D9  118A  2100  118A   	fcall	stringtab
  3482     06DC  00FF               	movwf	btemp+1
  3483     06DD  084B               	movf	si446x_configuration_init@col,w
  3484     06DE  3E32               	addlw	(low (_Pro2Cmd| 0))& (0+255)
  3485     06DF  0084               	movwf	4
  3486     06E0  087F               	movf	btemp+1,w
  3487     06E1  1383               	bcf	3,7	;select IRP bank0
  3488     06E2  0080               	movwf	0
  3489     06E3                     l2546:
  3490                           
  3491                           ;Si4463/si446x_api_lib.c: 83:       pSetPropCmd++;
  3492     06E3  3001               	movlw	1
  3493     06E4  07C9               	addwf	si446x_configuration_init@pSetPropCmd,f
  3494     06E5  1803               	skipnc
  3495     06E6  0ACA               	incf	si446x_configuration_init@pSetPropCmd+1,f
  3496     06E7  3000               	movlw	0
  3497     06E8  07CA               	addwf	si446x_configuration_init@pSetPropCmd+1,f
  3498     06E9                     l2548:
  3499                           
  3500                           ;Si4463/si446x_api_lib.c: 84:     }
  3501     06E9  3001               	movlw	1
  3502     06EA  00FF               	movwf	btemp+1
  3503     06EB  087F               	movf	btemp+1,w
  3504     06EC  07CB               	addwf	si446x_configuration_init@col,f
  3505     06ED                     l2550:
  3506     06ED  084C               	movf	si446x_configuration_init@numOfBytes,w
  3507     06EE  024B               	subwf	si446x_configuration_init@col,w
  3508     06EF  1C03               	skipc
  3509     06F0  2EF2               	goto	u1531
  3510     06F1  2EF3               	goto	u1530
  3511     06F2                     u1531:
  3512     06F2  2ED5               	goto	l2544
  3513     06F3                     u1530:
  3514     06F3                     l2552:
  3515                           
  3516                           ;Si4463/si446x_api_lib.c: 86:     if (radio_comm_SendCmdGetResp(numOfBytes, Pro2Cmd, 0, 
      +                          0) != 0xFF)
  3517     06F3  3032               	movlw	(low (_Pro2Cmd| 0))& (0+255)
  3518     06F4  00C2               	movwf	radio_comm_SendCmdGetResp@pCmdData
  3519     06F5  01C3               	clrf	radio_comm_SendCmdGetResp@respByteCount
  3520     06F6  01C4               	clrf	radio_comm_SendCmdGetResp@pRespData
  3521     06F7  084C               	movf	si446x_configuration_init@numOfBytes,w
  3522     06F8  158A  2681  118A   	fcall	_radio_comm_SendCmdGetResp
  3523     06FB  3AFF               	xorlw	255
  3524     06FC  1903               	skipnz
  3525     06FD  2EFF               	goto	u1541
  3526     06FE  2F00               	goto	u1540
  3527     06FF                     u1541:
  3528     06FF  2F02               	goto	l2558
  3529     0700                     u1540:
  3530     0700                     l2554:
  3531                           
  3532                           ;Si4463/si446x_api_lib.c: 87:     {;Si4463/si446x_api_lib.c: 89:       return SI446X_CTS
      +                          _TIMEOUT;
  3533     0700  3002               	movlw	2
  3534     0701  2F28               	goto	l333
  3535     0702                     l2558:
  3536                           
  3537                           ;Si4463/si446x_api_lib.c: 92:     if (radio_hal_NirqLevel() == 0)
  3538     0702  158A  2631  118A   	fcall	_radio_hal_NirqLevel
  3539     0705  3A00               	xorlw	0
  3540     0706  1D03               	skipz
  3541     0707  2F09               	goto	u1551
  3542     0708  2F0A               	goto	u1550
  3543     0709                     u1551:
  3544     0709  2F19               	goto	l2568
  3545     070A                     u1550:
  3546     070A                     l2560:
  3547                           
  3548                           ;Si4463/si446x_api_lib.c: 93:     {;Si4463/si446x_api_lib.c: 95:       si446x_get_int_st
      +                          atus(0, 0, 0);
  3549     070A  1283               	bcf	3,5	;RP0=0, select bank0
  3550     070B  1303               	bcf	3,6	;RP1=0, select bank0
  3551     070C  01C6               	clrf	si446x_get_int_status@MODEM_CLR_PEND
  3552     070D  01C7               	clrf	si446x_get_int_status@CHIP_CLR_PEND
  3553     070E  3000               	movlw	0
  3554     070F  158A  2752  118A   	fcall	_si446x_get_int_status
  3555     0712                     l2562:
  3556                           
  3557                           ;Si4463/si446x_api_lib.c: 96:       if (Si446xCmd.GET_INT_STATUS.CHIP_PEND & 0x8)
  3558     0712  1283               	bcf	3,5	;RP0=0, select bank0
  3559     0713  1303               	bcf	3,6	;RP1=0, select bank0
  3560     0714  1DA6               	btfss	_Si446xCmd+6,3
  3561     0715  2F17               	goto	u1561
  3562     0716  2F18               	goto	u1560
  3563     0717                     u1561:
  3564     0717  2F19               	goto	l2568
  3565     0718                     u1560:
  3566     0718  2ED1               	goto	l2538
  3567     0719                     l2568:
  3568                           
  3569                           ;Si4463/si446x_api_lib.c: 63:   while (*pSetPropCmd != 0x00)
  3570     0719  1283               	bcf	3,5	;RP0=0, select bank0
  3571     071A  1303               	bcf	3,6	;RP1=0, select bank0
  3572     071B  084A               	movf	si446x_configuration_init@pSetPropCmd+1,w
  3573     071C  00FF               	movwf	btemp+1
  3574     071D  0849               	movf	si446x_configuration_init@pSetPropCmd,w
  3575     071E  0084               	movwf	4
  3576     071F  118A  2100  118A   	fcall	stringtab
  3577     0722  3A00               	xorlw	0
  3578     0723  1D03               	skipz
  3579     0724  2F26               	goto	u1571
  3580     0725  2F27               	goto	u1570
  3581     0726                     u1571:
  3582     0726  2EBD               	goto	l2532
  3583     0727                     u1570:
  3584     0727                     l2570:
  3585                           
  3586                           ;Si4463/si446x_api_lib.c: 103:   return SI446X_SUCCESS;
  3587     0727  3000               	movlw	0
  3588     0728                     l333:
  3589     0728  0008               	return
  3590     0729                     __end_of_si446x_configuration_init:
  3591                           
  3592                           	psect	text14
  3593     0F52                     __ptext14:	
  3594 ;; *************** function _si446x_get_int_status *****************
  3595 ;; Defined at:
  3596 ;;		line 181 in file "Si4463/si446x_api_lib.c"
  3597 ;; Parameters:    Size  Location     Type
  3598 ;;  PH_CLR_PEND     1    wreg     unsigned char 
  3599 ;;  MODEM_CLR_PE    1    4[BANK0 ] unsigned char 
  3600 ;;  CHIP_CLR_PEN    1    5[BANK0 ] unsigned char 
  3601 ;; Auto vars:     Size  Location     Type
  3602 ;;  PH_CLR_PEND     1    6[BANK0 ] unsigned char 
  3603 ;; Return value:  Size  Location     Type
  3604 ;;                  1    wreg      void 
  3605 ;; Registers used:
  3606 ;;		wreg, fsr0l, fsr0h, status,2, status,0, pclath, cstack
  3607 ;; Tracked objects:
  3608 ;;		On entry : 0/0
  3609 ;;		On exit  : 0/0
  3610 ;;		Unchanged: 0/0
  3611 ;; Data sizes:     COMMON   BANK0   BANK1   BANK2
  3612 ;;      Params:         0       2       0       0
  3613 ;;      Locals:         0       1       0       0
  3614 ;;      Temps:          0       0       0       0
  3615 ;;      Totals:         0       3       0       0
  3616 ;;Total ram usage:        3 bytes
  3617 ;; Hardware stack levels used: 1
  3618 ;; Hardware stack levels required when called: 6
  3619 ;; This function calls:
  3620 ;;		_radio_comm_SendCmdGetResp
  3621 ;; This function is called by:
  3622 ;;		_vRadio_Init
  3623 ;;		_vRadio_StartTx_Variable_Packet
  3624 ;;		_si446x_configuration_init
  3625 ;;		_bRadio_Check_Tx_RX
  3626 ;;		_vRadio_StartRX
  3627 ;; This function uses a non-reentrant model
  3628 ;;
  3629                           
  3630     0F52                     _si446x_get_int_status:	
  3631                           ;psect for function _si446x_get_int_status
  3632                           
  3633                           
  3634                           ;incstack = 0
  3635                           ; Regs used in _si446x_get_int_status: [wreg-fsr0h+status,2+status,0+pclath+cstack]
  3636                           ;si446x_get_int_status@PH_CLR_PEND stored from wreg
  3637     0F52  1283               	bcf	3,5	;RP0=0, select bank0
  3638     0F53  1303               	bcf	3,6	;RP1=0, select bank0
  3639     0F54  00C8               	movwf	si446x_get_int_status@PH_CLR_PEND
  3640     0F55                     l2492:
  3641                           
  3642                           ;Si4463/si446x_api_lib.c: 181: void si446x_get_int_status(U8 PH_CLR_PEND, U8 MODEM_CLR_P
      +                          END, U8 CHIP_CLR_PEND);Si4463/si446x_api_lib.c: 182: {;Si4463/si446x_api_lib.c: 183:    
      +                           Pro2Cmd[0] = 0x20;
  3643     0F55  3020               	movlw	32
  3644     0F56  00B2               	movwf	_Pro2Cmd
  3645                           
  3646                           ;Si4463/si446x_api_lib.c: 184:     Pro2Cmd[1] = PH_CLR_PEND;
  3647     0F57  0848               	movf	si446x_get_int_status@PH_CLR_PEND,w
  3648     0F58  00B3               	movwf	_Pro2Cmd+1
  3649                           
  3650                           ;Si4463/si446x_api_lib.c: 185:     Pro2Cmd[2] = MODEM_CLR_PEND;
  3651     0F59  0846               	movf	si446x_get_int_status@MODEM_CLR_PEND,w
  3652     0F5A  00B4               	movwf	_Pro2Cmd+2
  3653                           
  3654                           ;Si4463/si446x_api_lib.c: 186:     Pro2Cmd[3] = CHIP_CLR_PEND;
  3655     0F5B  0847               	movf	si446x_get_int_status@CHIP_CLR_PEND,w
  3656     0F5C  00B5               	movwf	_Pro2Cmd+3
  3657     0F5D                     l2494:
  3658                           
  3659                           ;Si4463/si446x_api_lib.c: 188:     radio_comm_SendCmdGetResp( 4,
  3660     0F5D  3032               	movlw	(low (_Pro2Cmd| 0))& (0+255)
  3661     0F5E  00C2               	movwf	radio_comm_SendCmdGetResp@pCmdData
  3662     0F5F  3008               	movlw	8
  3663     0F60  00C3               	movwf	radio_comm_SendCmdGetResp@respByteCount
  3664     0F61  3032               	movlw	(low (_Pro2Cmd| 0))& (0+255)
  3665     0F62  00C4               	movwf	radio_comm_SendCmdGetResp@pRespData
  3666     0F63  3004               	movlw	4
  3667     0F64  158A  2681  158A   	fcall	_radio_comm_SendCmdGetResp
  3668     0F67                     l2496:
  3669                           
  3670                           ;Si4463/si446x_api_lib.c: 193:     Si446xCmd.GET_INT_STATUS.INT_PEND = Pro2Cmd[0];
  3671     0F67  1283               	bcf	3,5	;RP0=0, select bank0
  3672     0F68  1303               	bcf	3,6	;RP1=0, select bank0
  3673     0F69  0832               	movf	_Pro2Cmd,w
  3674     0F6A  00A0               	movwf	_Si446xCmd
  3675     0F6B                     l2498:
  3676                           
  3677                           ;Si4463/si446x_api_lib.c: 194:     Si446xCmd.GET_INT_STATUS.INT_STATUS = Pro2Cmd[1];
  3678     0F6B  0833               	movf	_Pro2Cmd+1,w
  3679     0F6C  00A1               	movwf	_Si446xCmd+1
  3680     0F6D                     l2500:
  3681                           
  3682                           ;Si4463/si446x_api_lib.c: 195:     Si446xCmd.GET_INT_STATUS.PH_PEND = Pro2Cmd[2];
  3683     0F6D  0834               	movf	_Pro2Cmd+2,w
  3684     0F6E  00A2               	movwf	_Si446xCmd+2
  3685     0F6F                     l2502:
  3686                           
  3687                           ;Si4463/si446x_api_lib.c: 196:     Si446xCmd.GET_INT_STATUS.PH_STATUS = Pro2Cmd[3];
  3688     0F6F  0835               	movf	_Pro2Cmd+3,w
  3689     0F70  00A3               	movwf	_Si446xCmd+3
  3690     0F71                     l2504:
  3691                           
  3692                           ;Si4463/si446x_api_lib.c: 197:     Si446xCmd.GET_INT_STATUS.MODEM_PEND = Pro2Cmd[4];
  3693     0F71  0836               	movf	_Pro2Cmd+4,w
  3694     0F72  00A4               	movwf	_Si446xCmd+4
  3695     0F73                     l2506:
  3696                           
  3697                           ;Si4463/si446x_api_lib.c: 198:     Si446xCmd.GET_INT_STATUS.MODEM_STATUS = Pro2Cmd[5];
  3698     0F73  0837               	movf	_Pro2Cmd+5,w
  3699     0F74  00A5               	movwf	_Si446xCmd+5
  3700     0F75                     l2508:
  3701                           
  3702                           ;Si4463/si446x_api_lib.c: 199:     Si446xCmd.GET_INT_STATUS.CHIP_PEND = Pro2Cmd[6];
  3703     0F75  0838               	movf	_Pro2Cmd+6,w
  3704     0F76  00A6               	movwf	_Si446xCmd+6
  3705     0F77                     l2510:
  3706                           
  3707                           ;Si4463/si446x_api_lib.c: 200:     Si446xCmd.GET_INT_STATUS.CHIP_STATUS = Pro2Cmd[7];
  3708     0F77  0839               	movf	_Pro2Cmd+7,w
  3709     0F78  00A7               	movwf	_Si446xCmd+7
  3710     0F79                     l352:
  3711     0F79  0008               	return
  3712     0F7A                     __end_of_si446x_get_int_status:
  3713                           
  3714                           	psect	text15
  3715     0E81                     __ptext15:	
  3716 ;; *************** function _radio_comm_SendCmdGetResp *****************
  3717 ;; Defined at:
  3718 ;;		line 175 in file "Si4463/radio_comm.c"
  3719 ;; Parameters:    Size  Location     Type
  3720 ;;  cmdByteCount    1    wreg     unsigned char 
  3721 ;;  pCmdData        1    0[BANK0 ] PTR unsigned char 
  3722 ;;		 -> Pro2Cmd(16), 
  3723 ;;  respByteCoun    1    1[BANK0 ] unsigned char 
  3724 ;;  pRespData       1    2[BANK0 ] PTR unsigned char 
  3725 ;;		 -> Pro2Cmd(16), NULL(0), 
  3726 ;; Auto vars:     Size  Location     Type
  3727 ;;  cmdByteCount    1    3[BANK0 ] unsigned char 
  3728 ;; Return value:  Size  Location     Type
  3729 ;;                  1    wreg      unsigned char 
  3730 ;; Registers used:
  3731 ;;		wreg, fsr0l, fsr0h, status,2, status,0, pclath, cstack
  3732 ;; Tracked objects:
  3733 ;;		On entry : 0/0
  3734 ;;		On exit  : 0/0
  3735 ;;		Unchanged: 0/0
  3736 ;; Data sizes:     COMMON   BANK0   BANK1   BANK2
  3737 ;;      Params:         0       3       0       0
  3738 ;;      Locals:         0       1       0       0
  3739 ;;      Temps:          0       0       0       0
  3740 ;;      Totals:         0       4       0       0
  3741 ;;Total ram usage:        4 bytes
  3742 ;; Hardware stack levels used: 1
  3743 ;; Hardware stack levels required when called: 5
  3744 ;; This function calls:
  3745 ;;		_radio_comm_GetResp
  3746 ;;		_radio_comm_SendCmd
  3747 ;; This function is called by:
  3748 ;;		_si446x_configuration_init
  3749 ;;		_si446x_get_int_status
  3750 ;;		_si446x_fifo_info
  3751 ;;		_si446x_part_info
  3752 ;;		_si446x_gpio_pin_cfg
  3753 ;;		_si446x_get_property
  3754 ;;		_si446x_func_info
  3755 ;; This function uses a non-reentrant model
  3756 ;;
  3757                           
  3758     0E81                     _radio_comm_SendCmdGetResp:	
  3759                           ;psect for function _radio_comm_SendCmdGetResp
  3760                           
  3761                           
  3762                           ;incstack = 0
  3763                           ; Regs used in _radio_comm_SendCmdGetResp: [wreg-fsr0h+status,2+status,0+pclath+cstack]
  3764                           ;radio_comm_SendCmdGetResp@cmdByteCount stored from wreg
  3765     0E81  1283               	bcf	3,5	;RP0=0, select bank0
  3766     0E82  1303               	bcf	3,6	;RP1=0, select bank0
  3767     0E83  00C5               	movwf	radio_comm_SendCmdGetResp@cmdByteCount
  3768     0E84                     l2488:
  3769                           
  3770                           ;Si4463/radio_comm.c: 175: U8 radio_comm_SendCmdGetResp(U8 cmdByteCount, U8* pCmdData, U
      +                          8 respByteCount, U8* pRespData);Si4463/radio_comm.c: 176: {;Si4463/radio_comm.c: 177:   
      +                            radio_comm_SendCmd(cmdByteCount, pCmdData);
  3771     0E84  0842               	movf	radio_comm_SendCmdGetResp@pCmdData,w
  3772     0E85  00FC               	movwf	radio_comm_SendCmd@pData
  3773     0E86  0845               	movf	radio_comm_SendCmdGetResp@cmdByteCount,w
  3774     0E87  158A  26F1  158A   	fcall	_radio_comm_SendCmd
  3775                           
  3776                           ;Si4463/radio_comm.c: 178:     return radio_comm_GetResp(respByteCount, pRespData);
  3777     0E8A  1283               	bcf	3,5	;RP0=0, select bank0
  3778     0E8B  1303               	bcf	3,6	;RP1=0, select bank0
  3779     0E8C  0844               	movf	radio_comm_SendCmdGetResp@pRespData,w
  3780     0E8D  00F7               	movwf	radio_comm_GetResp@pData
  3781     0E8E  0843               	movf	radio_comm_SendCmdGetResp@respByteCount,w
  3782     0E8F  118A  2792  158A   	fcall	_radio_comm_GetResp
  3783     0E92                     l236:
  3784     0E92  0008               	return
  3785     0E93                     __end_of_radio_comm_SendCmdGetResp:
  3786                           
  3787                           	psect	text16
  3788     0EF1                     __ptext16:	
  3789 ;; *************** function _radio_comm_SendCmd *****************
  3790 ;; Defined at:
  3791 ;;		line 86 in file "Si4463/radio_comm.c"
  3792 ;; Parameters:    Size  Location     Type
  3793 ;;  byteCount       1    wreg     unsigned char 
  3794 ;;  pData           1   12[COMMON] PTR unsigned char 
  3795 ;;		 -> Pro2Cmd(16), 
  3796 ;; Auto vars:     Size  Location     Type
  3797 ;;  byteCount       1   13[COMMON] unsigned char 
  3798 ;; Return value:  Size  Location     Type
  3799 ;;                  1    wreg      void 
  3800 ;; Registers used:
  3801 ;;		wreg, fsr0l, fsr0h, status,2, status,0, pclath, cstack
  3802 ;; Tracked objects:
  3803 ;;		On entry : 0/0
  3804 ;;		On exit  : 0/0
  3805 ;;		Unchanged: 0/0
  3806 ;; Data sizes:     COMMON   BANK0   BANK1   BANK2
  3807 ;;      Params:         1       0       0       0
  3808 ;;      Locals:         1       0       0       0
  3809 ;;      Temps:          0       0       0       0
  3810 ;;      Totals:         2       0       0       0
  3811 ;;Total ram usage:        2 bytes
  3812 ;; Hardware stack levels used: 1
  3813 ;; Hardware stack levels required when called: 4
  3814 ;; This function calls:
  3815 ;;		_radio_comm_PollCTS
  3816 ;;		_radio_hal_ClearNsel
  3817 ;;		_radio_hal_SetNsel
  3818 ;;		_radio_hal_SpiWriteData
  3819 ;; This function is called by:
  3820 ;;		_radio_comm_SendCmdGetResp
  3821 ;;		_si446x_start_tx
  3822 ;;		_si446x_change_state
  3823 ;;		_si446x_power_up
  3824 ;;		_si446x_start_rx
  3825 ;;		_si446x_set_property
  3826 ;;		_si446x_nop
  3827 ;; This function uses a non-reentrant model
  3828 ;;
  3829                           
  3830     0EF1                     _radio_comm_SendCmd:	
  3831                           ;psect for function _radio_comm_SendCmd
  3832                           
  3833                           
  3834                           ;incstack = 0
  3835                           ; Regs used in _radio_comm_SendCmd: [wreg-fsr0h+status,2+status,0+pclath+cstack]
  3836                           ;radio_comm_SendCmd@byteCount stored from wreg
  3837     0EF1  00FD               	movwf	radio_comm_SendCmd@byteCount
  3838     0EF2                     l2474:
  3839                           
  3840                           ;Si4463/radio_comm.c: 86: void radio_comm_SendCmd(U8 byteCount, U8* pData);Si4463/radio_
      +                          comm.c: 87: {;Si4463/radio_comm.c: 88:     while (!ctsWentHigh)
  3841     0EF2  2EF6               	goto	l2478
  3842     0EF3                     l2476:
  3843                           
  3844                           ;Si4463/radio_comm.c: 89:     {;Si4463/radio_comm.c: 90:         radio_comm_PollCTS();
  3845     0EF3  158A  263D  158A   	fcall	_radio_comm_PollCTS
  3846     0EF6                     l2478:
  3847                           
  3848                           ;Si4463/radio_comm.c: 88:     while (!ctsWentHigh)
  3849     0EF6  1283               	bcf	3,5	;RP0=0, select bank0
  3850     0EF7  1303               	bcf	3,6	;RP1=0, select bank0
  3851     0EF8  0830               	movf	_ctsWentHigh,w
  3852     0EF9  1903               	btfsc	3,2
  3853     0EFA  2EFC               	goto	u1491
  3854     0EFB  2EFD               	goto	u1490
  3855     0EFC                     u1491:
  3856     0EFC  2EF3               	goto	l2476
  3857     0EFD                     u1490:
  3858     0EFD                     l2480:
  3859                           
  3860                           ;Si4463/radio_comm.c: 92:     radio_hal_ClearNsel();
  3861     0EFD  158A  260E  158A   	fcall	_radio_hal_ClearNsel
  3862     0F00                     l2482:
  3863                           
  3864                           ;Si4463/radio_comm.c: 93:     radio_hal_SpiWriteData(byteCount, pData);
  3865     0F00  087C               	movf	radio_comm_SendCmd@pData,w
  3866     0F01  00F1               	movwf	radio_hal_SpiWriteData@pData
  3867     0F02  087D               	movf	radio_comm_SendCmd@byteCount,w
  3868     0F03  158A  270D  158A   	fcall	_radio_hal_SpiWriteData
  3869     0F06                     l2484:
  3870                           
  3871                           ;Si4463/radio_comm.c: 94:     radio_hal_SetNsel();
  3872     0F06  158A  2612  158A   	fcall	_radio_hal_SetNsel
  3873     0F09                     l2486:
  3874                           
  3875                           ;Si4463/radio_comm.c: 95:     ctsWentHigh = 0;
  3876     0F09  1283               	bcf	3,5	;RP0=0, select bank0
  3877     0F0A  1303               	bcf	3,6	;RP1=0, select bank0
  3878     0F0B  01B0               	clrf	_ctsWentHigh
  3879     0F0C                     l213:
  3880     0F0C  0008               	return
  3881     0F0D                     __end_of_radio_comm_SendCmd:
  3882                           
  3883                           	psect	text17
  3884     0F0D                     __ptext17:	
  3885 ;; *************** function _radio_hal_SpiWriteData *****************
  3886 ;; Defined at:
  3887 ;;		line 31 in file "Si4463/radio_hal.c"
  3888 ;; Parameters:    Size  Location     Type
  3889 ;;  byteCount       1    wreg     unsigned char 
  3890 ;;  pData           1    1[COMMON] PTR unsigned char 
  3891 ;;		 -> Pro2Cmd(16), customRadioPacket(64), 
  3892 ;; Auto vars:     Size  Location     Type
  3893 ;;  byteCount       1    4[COMMON] unsigned char 
  3894 ;;  i               2    5[COMMON] unsigned int 
  3895 ;; Return value:  Size  Location     Type
  3896 ;;                  1    wreg      void 
  3897 ;; Registers used:
  3898 ;;		wreg, fsr0l, fsr0h, status,2, status,0, pclath, cstack
  3899 ;; Tracked objects:
  3900 ;;		On entry : 0/0
  3901 ;;		On exit  : 0/0
  3902 ;;		Unchanged: 0/0
  3903 ;; Data sizes:     COMMON   BANK0   BANK1   BANK2
  3904 ;;      Params:         1       0       0       0
  3905 ;;      Locals:         3       0       0       0
  3906 ;;      Temps:          2       0       0       0
  3907 ;;      Totals:         6       0       0       0
  3908 ;;Total ram usage:        6 bytes
  3909 ;; Hardware stack levels used: 1
  3910 ;; Hardware stack levels required when called: 1
  3911 ;; This function calls:
  3912 ;;		_SPI_Write
  3913 ;; This function is called by:
  3914 ;;		_radio_comm_SendCmd
  3915 ;;		_radio_comm_WriteData
  3916 ;; This function uses a non-reentrant model
  3917 ;;
  3918                           
  3919     0F0D                     _radio_hal_SpiWriteData:	
  3920                           ;psect for function _radio_hal_SpiWriteData
  3921                           
  3922                           
  3923                           ;incstack = 0
  3924                           ; Regs used in _radio_hal_SpiWriteData: [wreg-fsr0h+status,2+status,0+pclath+cstack]
  3925                           ;radio_hal_SpiWriteData@byteCount stored from wreg
  3926     0F0D  00F4               	movwf	radio_hal_SpiWriteData@byteCount
  3927     0F0E                     l2466:
  3928                           
  3929                           ;Si4463/radio_hal.c: 32:  U32 i;;Si4463/radio_hal.c: 33:  for (i = 0; i < byteCount; i++
      +                          ) {
  3930     0F0E  01F5               	clrf	radio_hal_SpiWriteData@i
  3931     0F0F  01F6               	clrf	radio_hal_SpiWriteData@i+1
  3932     0F10  2F21               	goto	l2472
  3933     0F11                     l2468:
  3934                           
  3935                           ;Si4463/radio_hal.c: 34:   SPI_Write(pData[i]);
  3936     0F11  0875               	movf	radio_hal_SpiWriteData@i,w
  3937     0F12  0771               	addwf	radio_hal_SpiWriteData@pData,w
  3938     0F13  00F2               	movwf	??_radio_hal_SpiWriteData
  3939     0F14  0872               	movf	??_radio_hal_SpiWriteData,w
  3940     0F15  0084               	movwf	4
  3941     0F16  1383               	bcf	3,7	;select IRP bank0
  3942     0F17  0800               	movf	0,w
  3943     0F18  158A  264B  158A   	fcall	_SPI_Write
  3944     0F1B                     l2470:
  3945                           
  3946                           ;Si4463/radio_hal.c: 35:  }
  3947     0F1B  3001               	movlw	1
  3948     0F1C  07F5               	addwf	radio_hal_SpiWriteData@i,f
  3949     0F1D  1803               	skipnc
  3950     0F1E  0AF6               	incf	radio_hal_SpiWriteData@i+1,f
  3951     0F1F  3000               	movlw	0
  3952     0F20  07F6               	addwf	radio_hal_SpiWriteData@i+1,f
  3953     0F21                     l2472:
  3954     0F21  0874               	movf	radio_hal_SpiWriteData@byteCount,w
  3955     0F22  00F2               	movwf	??_radio_hal_SpiWriteData
  3956     0F23  01F3               	clrf	??_radio_hal_SpiWriteData+1
  3957     0F24  0873               	movf	??_radio_hal_SpiWriteData+1,w
  3958     0F25  0276               	subwf	radio_hal_SpiWriteData@i+1,w
  3959     0F26  1D03               	skipz
  3960     0F27  2F2A               	goto	u1485
  3961     0F28  0872               	movf	??_radio_hal_SpiWriteData,w
  3962     0F29  0275               	subwf	radio_hal_SpiWriteData@i,w
  3963     0F2A                     u1485:
  3964     0F2A  1C03               	skipc
  3965     0F2B  2F2D               	goto	u1481
  3966     0F2C  2F2E               	goto	u1480
  3967     0F2D                     u1481:
  3968     0F2D  2F11               	goto	l2468
  3969     0F2E                     u1480:
  3970     0F2E                     l273:
  3971     0F2E  0008               	return
  3972     0F2F                     __end_of_radio_hal_SpiWriteData:
  3973                           
  3974                           	psect	text18
  3975     0E3D                     __ptext18:	
  3976 ;; *************** function _radio_comm_PollCTS *****************
  3977 ;; Defined at:
  3978 ;;		line 152 in file "Si4463/radio_comm.c"
  3979 ;; Parameters:    Size  Location     Type
  3980 ;;		None
  3981 ;; Auto vars:     Size  Location     Type
  3982 ;;		None
  3983 ;; Return value:  Size  Location     Type
  3984 ;;                  1    wreg      unsigned char 
  3985 ;; Registers used:
  3986 ;;		wreg, fsr0l, fsr0h, status,2, status,0, pclath, cstack
  3987 ;; Tracked objects:
  3988 ;;		On entry : 0/0
  3989 ;;		On exit  : 0/0
  3990 ;;		Unchanged: 0/0
  3991 ;; Data sizes:     COMMON   BANK0   BANK1   BANK2
  3992 ;;      Params:         0       0       0       0
  3993 ;;      Locals:         0       0       0       0
  3994 ;;      Temps:          0       0       0       0
  3995 ;;      Totals:         0       0       0       0
  3996 ;;Total ram usage:        0 bytes
  3997 ;; Hardware stack levels used: 1
  3998 ;; Hardware stack levels required when called: 3
  3999 ;; This function calls:
  4000 ;;		_radio_comm_GetResp
  4001 ;; This function is called by:
  4002 ;;		_radio_comm_SendCmd
  4003 ;;		_radio_comm_WriteData
  4004 ;;		_radio_comm_ReadData
  4005 ;; This function uses a non-reentrant model
  4006 ;;
  4007                           
  4008     0E3D                     _radio_comm_PollCTS:	
  4009                           ;psect for function _radio_comm_PollCTS
  4010                           
  4011     0E3D                     l2462:	
  4012                           ;incstack = 0
  4013                           ; Regs used in _radio_comm_PollCTS: [wreg-fsr0h+status,2+status,0+pclath+cstack]
  4014                           
  4015                           
  4016                           ;Si4463/radio_comm.c: 154:     return radio_comm_GetResp(0, 0);;	Return value of _radio_
      +                          comm_PollCTS is never used
  4017     0E3D  01F7               	clrf	radio_comm_GetResp@pData
  4018     0E3E  3000               	movlw	0
  4019     0E3F  118A  2792  158A   	fcall	_radio_comm_GetResp
  4020     0E42                     l230:
  4021     0E42  0008               	return
  4022     0E43                     __end_of_radio_comm_PollCTS:
  4023                           
  4024                           	psect	text19
  4025     0792                     __ptext19:	
  4026 ;; *************** function _radio_comm_GetResp *****************
  4027 ;; Defined at:
  4028 ;;		line 43 in file "Si4463/radio_comm.c"
  4029 ;; Parameters:    Size  Location     Type
  4030 ;;  byteCount       1    wreg     unsigned char 
  4031 ;;  pData           1    7[COMMON] PTR unsigned char 
  4032 ;;		 -> Pro2Cmd(16), NULL(0), 
  4033 ;; Auto vars:     Size  Location     Type
  4034 ;;  byteCount       1    8[COMMON] unsigned char 
  4035 ;;  errCnt          2    9[COMMON] unsigned short 
  4036 ;;  ctsVal          1   11[COMMON] unsigned char 
  4037 ;; Return value:  Size  Location     Type
  4038 ;;                  1    wreg      unsigned char 
  4039 ;; Registers used:
  4040 ;;		wreg, fsr0l, fsr0h, status,2, status,0, pclath, cstack
  4041 ;; Tracked objects:
  4042 ;;		On entry : 0/0
  4043 ;;		On exit  : 0/0
  4044 ;;		Unchanged: 0/0
  4045 ;; Data sizes:     COMMON   BANK0   BANK1   BANK2
  4046 ;;      Params:         1       0       0       0
  4047 ;;      Locals:         4       0       0       0
  4048 ;;      Temps:          0       0       0       0
  4049 ;;      Totals:         5       0       0       0
  4050 ;;Total ram usage:        5 bytes
  4051 ;; Hardware stack levels used: 1
  4052 ;; Hardware stack levels required when called: 2
  4053 ;; This function calls:
  4054 ;;		_radio_hal_ClearNsel
  4055 ;;		_radio_hal_SetNsel
  4056 ;;		_radio_hal_SpiReadByte
  4057 ;;		_radio_hal_SpiReadData
  4058 ;;		_radio_hal_SpiWriteByte
  4059 ;; This function is called by:
  4060 ;;		_radio_comm_PollCTS
  4061 ;;		_radio_comm_SendCmdGetResp
  4062 ;; This function uses a non-reentrant model
  4063 ;;
  4064                           
  4065     0792                     _radio_comm_GetResp:	
  4066                           ;psect for function _radio_comm_GetResp
  4067                           
  4068                           
  4069                           ;incstack = 0
  4070                           ; Regs used in _radio_comm_GetResp: [wreg-fsr0h+status,2+status,0+pclath+cstack]
  4071                           ;radio_comm_GetResp@byteCount stored from wreg
  4072     0792  00F8               	movwf	radio_comm_GetResp@byteCount
  4073     0793                     l2428:
  4074                           
  4075                           ;Si4463/radio_comm.c: 43: U8 radio_comm_GetResp(U8 byteCount, U8* pData);Si4463/radio_co
      +                          mm.c: 44: {;Si4463/radio_comm.c: 45:     U8 ctsVal = 0;
  4076     0793  01FB               	clrf	radio_comm_GetResp@ctsVal
  4077     0794                     l2430:
  4078                           
  4079                           ;Si4463/radio_comm.c: 46:     U16 errCnt = 10000;
  4080     0794  3010               	movlw	16
  4081     0795  00F9               	movwf	radio_comm_GetResp@errCnt
  4082     0796  3027               	movlw	39
  4083     0797  00FA               	movwf	radio_comm_GetResp@errCnt+1
  4084                           
  4085                           ;Si4463/radio_comm.c: 48:     while (errCnt != 0)
  4086     0798  2FC1               	goto	l2450
  4087     0799                     l2432:
  4088                           
  4089                           ;Si4463/radio_comm.c: 49:     {;Si4463/radio_comm.c: 50:         radio_hal_ClearNsel();
  4090     0799  158A  260E  118A   	fcall	_radio_hal_ClearNsel
  4091     079C                     l2434:
  4092                           
  4093                           ;Si4463/radio_comm.c: 51:         radio_hal_SpiWriteByte(0x44);
  4094     079C  3044               	movlw	68
  4095     079D  158A  2637  118A   	fcall	_radio_hal_SpiWriteByte
  4096     07A0                     l2436:
  4097                           
  4098                           ;Si4463/radio_comm.c: 52:         ctsVal = radio_hal_SpiReadByte();
  4099     07A0  158A  262C  118A   	fcall	_radio_hal_SpiReadByte
  4100     07A3  00FB               	movwf	radio_comm_GetResp@ctsVal
  4101     07A4                     l2438:
  4102                           
  4103                           ;Si4463/radio_comm.c: 53:         if (ctsVal == 0xFF)
  4104     07A4  0A7B               	incf	radio_comm_GetResp@ctsVal,w
  4105     07A5  1D03               	btfss	3,2
  4106     07A6  2FA8               	goto	u1431
  4107     07A7  2FA9               	goto	u1430
  4108     07A8                     u1431:
  4109     07A8  2FB8               	goto	l2446
  4110     07A9                     u1430:
  4111     07A9                     l2440:
  4112                           
  4113                           ;Si4463/radio_comm.c: 54:         {;Si4463/radio_comm.c: 55:             if (byteCount)
  4114     07A9  0878               	movf	radio_comm_GetResp@byteCount,w
  4115     07AA  1903               	btfsc	3,2
  4116     07AB  2FAD               	goto	u1441
  4117     07AC  2FAE               	goto	u1440
  4118     07AD                     u1441:
  4119     07AD  2FB4               	goto	l2444
  4120     07AE                     u1440:
  4121     07AE                     l2442:
  4122                           
  4123                           ;Si4463/radio_comm.c: 56:             {;Si4463/radio_comm.c: 57:                 radio_h
      +                          al_SpiReadData(byteCount, pData);
  4124     07AE  0877               	movf	radio_comm_GetResp@pData,w
  4125     07AF  00F1               	movwf	radio_hal_SpiReadData@pData
  4126     07B0  0878               	movf	radio_comm_GetResp@byteCount,w
  4127     07B1  158A  272F  118A   	fcall	_radio_hal_SpiReadData
  4128     07B4                     l2444:
  4129                           
  4130                           ;Si4463/radio_comm.c: 59:             radio_hal_SetNsel();
  4131     07B4  158A  2612  118A   	fcall	_radio_hal_SetNsel
  4132                           
  4133                           ;Si4463/radio_comm.c: 60:             break;
  4134     07B7  2FC7               	goto	l2452
  4135     07B8                     l2446:
  4136                           
  4137                           ;Si4463/radio_comm.c: 62:         radio_hal_SetNsel();
  4138     07B8  158A  2612  118A   	fcall	_radio_hal_SetNsel
  4139     07BB                     l2448:
  4140                           
  4141                           ;Si4463/radio_comm.c: 63:         errCnt--;
  4142     07BB  3001               	movlw	1
  4143     07BC  02F9               	subwf	radio_comm_GetResp@errCnt,f
  4144     07BD  3000               	movlw	0
  4145     07BE  1C03               	skipc
  4146     07BF  03FA               	decf	radio_comm_GetResp@errCnt+1,f
  4147     07C0  02FA               	subwf	radio_comm_GetResp@errCnt+1,f
  4148     07C1                     l2450:
  4149                           
  4150                           ;Si4463/radio_comm.c: 48:     while (errCnt != 0)
  4151     07C1  0879               	movf	radio_comm_GetResp@errCnt,w
  4152     07C2  047A               	iorwf	radio_comm_GetResp@errCnt+1,w
  4153     07C3  1D03               	btfss	3,2
  4154     07C4  2FC6               	goto	u1451
  4155     07C5  2FC7               	goto	u1450
  4156     07C6                     u1451:
  4157     07C6  2F99               	goto	l2432
  4158     07C7                     u1450:
  4159     07C7                     l2452:
  4160                           
  4161                           ;Si4463/radio_comm.c: 66:     if (errCnt == 0)
  4162     07C7  0879               	movf	radio_comm_GetResp@errCnt,w
  4163     07C8  047A               	iorwf	radio_comm_GetResp@errCnt+1,w
  4164     07C9  1D03               	btfss	3,2
  4165     07CA  2FCC               	goto	u1461
  4166     07CB  2FCD               	goto	u1460
  4167     07CC                     u1461:
  4168     07CC  2FCE               	goto	l2454
  4169     07CD                     u1460:
  4170     07CD                     l203:	
  4171                           ;Si4463/radio_comm.c: 67:     {;Si4463/radio_comm.c: 68:         while(1)
  4172                           
  4173     07CD                     l204:	
  4174                           ;Si4463/radio_comm.c: 69:         {;Si4463/radio_comm.c: 70:         }
  4175                           
  4176     07CD  2FCD               	goto	l203
  4177     07CE                     l2454:
  4178                           
  4179                           ;Si4463/radio_comm.c: 73:     if (ctsVal == 0xFF)
  4180     07CE  0A7B               	incf	radio_comm_GetResp@ctsVal,w
  4181     07CF  1D03               	btfss	3,2
  4182     07D0  2FD2               	goto	u1471
  4183     07D1  2FD3               	goto	u1470
  4184     07D2                     u1471:
  4185     07D2  2FD7               	goto	l2458
  4186     07D3                     u1470:
  4187     07D3                     l2456:
  4188                           
  4189                           ;Si4463/radio_comm.c: 74:     {;Si4463/radio_comm.c: 75:         ctsWentHigh = 1;
  4190     07D3  1283               	bcf	3,5	;RP0=0, select bank0
  4191     07D4  1303               	bcf	3,6	;RP1=0, select bank0
  4192     07D5  01B0               	clrf	_ctsWentHigh
  4193     07D6  0AB0               	incf	_ctsWentHigh,f
  4194     07D7                     l2458:
  4195                           
  4196                           ;Si4463/radio_comm.c: 77:     return ctsVal;
  4197     07D7  087B               	movf	radio_comm_GetResp@ctsVal,w
  4198     07D8                     l207:
  4199     07D8  0008               	return
  4200     07D9                     __end_of_radio_comm_GetResp:
  4201                           
  4202                           	psect	text20
  4203     0E37                     __ptext20:	
  4204 ;; *************** function _radio_hal_SpiWriteByte *****************
  4205 ;; Defined at:
  4206 ;;		line 23 in file "Si4463/radio_hal.c"
  4207 ;; Parameters:    Size  Location     Type
  4208 ;;  byteToWrite     1    wreg     unsigned char 
  4209 ;; Auto vars:     Size  Location     Type
  4210 ;;  byteToWrite     1    1[COMMON] unsigned char 
  4211 ;; Return value:  Size  Location     Type
  4212 ;;                  1    wreg      void 
  4213 ;; Registers used:
  4214 ;;		wreg, status,2, status,0, pclath, cstack
  4215 ;; Tracked objects:
  4216 ;;		On entry : 0/0
  4217 ;;		On exit  : 0/0
  4218 ;;		Unchanged: 0/0
  4219 ;; Data sizes:     COMMON   BANK0   BANK1   BANK2
  4220 ;;      Params:         0       0       0       0
  4221 ;;      Locals:         1       0       0       0
  4222 ;;      Temps:          0       0       0       0
  4223 ;;      Totals:         1       0       0       0
  4224 ;;Total ram usage:        1 bytes
  4225 ;; Hardware stack levels used: 1
  4226 ;; Hardware stack levels required when called: 1
  4227 ;; This function calls:
  4228 ;;		_SPI_Write
  4229 ;; This function is called by:
  4230 ;;		_radio_comm_GetResp
  4231 ;;		_radio_comm_WriteData
  4232 ;;		_radio_comm_ReadData
  4233 ;; This function uses a non-reentrant model
  4234 ;;
  4235                           
  4236     0E37                     _radio_hal_SpiWriteByte:	
  4237                           ;psect for function _radio_hal_SpiWriteByte
  4238                           
  4239                           
  4240                           ;incstack = 0
  4241                           ; Regs used in _radio_hal_SpiWriteByte: [wreg+status,2+status,0+pclath+cstack]
  4242                           ;radio_hal_SpiWriteByte@byteToWrite stored from wreg
  4243     0E37  00F1               	movwf	radio_hal_SpiWriteByte@byteToWrite
  4244     0E38                     l2412:
  4245                           
  4246                           ;Si4463/radio_hal.c: 24:  SPI_Write(byteToWrite);
  4247     0E38  0871               	movf	radio_hal_SpiWriteByte@byteToWrite,w
  4248     0E39  158A  264B  158A   	fcall	_SPI_Write
  4249     0E3C                     l264:
  4250     0E3C  0008               	return
  4251     0E3D                     __end_of_radio_hal_SpiWriteByte:
  4252                           
  4253                           	psect	text21
  4254     0E4B                     __ptext21:	
  4255 ;; *************** function _SPI_Write *****************
  4256 ;; Defined at:
  4257 ;;		line 40 in file "src/chipset.c"
  4258 ;; Parameters:    Size  Location     Type
  4259 ;;  data            1    wreg     unsigned char 
  4260 ;; Auto vars:     Size  Location     Type
  4261 ;;  data            1    0[COMMON] unsigned char 
  4262 ;; Return value:  Size  Location     Type
  4263 ;;                  1    wreg      void 
  4264 ;; Registers used:
  4265 ;;		wreg
  4266 ;; Tracked objects:
  4267 ;;		On entry : 0/0
  4268 ;;		On exit  : 0/0
  4269 ;;		Unchanged: 0/0
  4270 ;; Data sizes:     COMMON   BANK0   BANK1   BANK2
  4271 ;;      Params:         0       0       0       0
  4272 ;;      Locals:         1       0       0       0
  4273 ;;      Temps:          0       0       0       0
  4274 ;;      Totals:         1       0       0       0
  4275 ;;Total ram usage:        1 bytes
  4276 ;; Hardware stack levels used: 1
  4277 ;; This function calls:
  4278 ;;		Nothing
  4279 ;; This function is called by:
  4280 ;;		_radio_hal_SpiWriteByte
  4281 ;;		_radio_hal_SpiWriteData
  4282 ;;		_SPI_Write_Data
  4283 ;; This function uses a non-reentrant model
  4284 ;;
  4285                           
  4286     0E4B                     _SPI_Write:	
  4287                           ;psect for function _SPI_Write
  4288                           
  4289                           
  4290                           ;incstack = 0
  4291                           ; Regs used in _SPI_Write: [wreg]
  4292                           ;SPI_Write@data stored from wreg
  4293     0E4B  00F0               	movwf	SPI_Write@data
  4294     0E4C                     l2402:
  4295                           
  4296                           ;src/chipset.c: 41:     SSPBUF = data;
  4297     0E4C  0870               	movf	SPI_Write@data,w
  4298     0E4D  1283               	bcf	3,5	;RP0=0, select bank0
  4299     0E4E  1303               	bcf	3,6	;RP1=0, select bank0
  4300     0E4F  0093               	movwf	19	;volatile
  4301     0E50                     l52:	
  4302                           ;src/chipset.c: 42:     while(!SSPSTATbits.BF);
  4303                           
  4304     0E50  1683               	bsf	3,5	;RP0=1, select bank1
  4305     0E51  1303               	bcf	3,6	;RP1=0, select bank1
  4306     0E52  1C14               	btfss	20,0	;volatile
  4307     0E53  2E55               	goto	u1401
  4308     0E54  2E56               	goto	u1400
  4309     0E55                     u1401:
  4310     0E55  2E50               	goto	l52
  4311     0E56                     u1400:
  4312     0E56                     l55:
  4313     0E56  0008               	return
  4314     0E57                     __end_of_SPI_Write:
  4315                           
  4316                           	psect	text22
  4317     0F2F                     __ptext22:	
  4318 ;; *************** function _radio_hal_SpiReadData *****************
  4319 ;; Defined at:
  4320 ;;		line 38 in file "Si4463/radio_hal.c"
  4321 ;; Parameters:    Size  Location     Type
  4322 ;;  byteCount       1    wreg     unsigned char 
  4323 ;;  pData           1    1[COMMON] PTR unsigned char 
  4324 ;;		 -> Pro2Cmd(16), NULL(0), customRadioPacket(64), 
  4325 ;; Auto vars:     Size  Location     Type
  4326 ;;  byteCount       1    4[COMMON] unsigned char 
  4327 ;;  i               2    5[COMMON] unsigned int 
  4328 ;; Return value:  Size  Location     Type
  4329 ;;                  1    wreg      void 
  4330 ;; Registers used:
  4331 ;;		wreg, fsr0l, fsr0h, status,2, status,0, pclath, cstack
  4332 ;; Tracked objects:
  4333 ;;		On entry : 0/0
  4334 ;;		On exit  : 0/0
  4335 ;;		Unchanged: 0/0
  4336 ;; Data sizes:     COMMON   BANK0   BANK1   BANK2
  4337 ;;      Params:         1       0       0       0
  4338 ;;      Locals:         3       0       0       0
  4339 ;;      Temps:          2       0       0       0
  4340 ;;      Totals:         6       0       0       0
  4341 ;;Total ram usage:        6 bytes
  4342 ;; Hardware stack levels used: 1
  4343 ;; Hardware stack levels required when called: 1
  4344 ;; This function calls:
  4345 ;;		_SPI_Read
  4346 ;; This function is called by:
  4347 ;;		_radio_comm_GetResp
  4348 ;;		_radio_comm_ReadData
  4349 ;; This function uses a non-reentrant model
  4350 ;;
  4351                           
  4352     0F2F                     _radio_hal_SpiReadData:	
  4353                           ;psect for function _radio_hal_SpiReadData
  4354                           
  4355                           
  4356                           ;incstack = 0
  4357                           ; Regs used in _radio_hal_SpiReadData: [wreg-fsr0h+status,2+status,0+pclath+cstack]
  4358                           ;radio_hal_SpiReadData@byteCount stored from wreg
  4359     0F2F  00F4               	movwf	radio_hal_SpiReadData@byteCount
  4360     0F30                     l2418:
  4361                           
  4362                           ;Si4463/radio_hal.c: 39:  U32 i;;Si4463/radio_hal.c: 40:  for (i = 0; i < byteCount; i++
      +                          ) {
  4363     0F30  01F5               	clrf	radio_hal_SpiReadData@i
  4364     0F31  01F6               	clrf	radio_hal_SpiReadData@i+1
  4365     0F32  2F44               	goto	l2424
  4366     0F33                     l2420:
  4367                           
  4368                           ;Si4463/radio_hal.c: 41:   pData[i] = SPI_Read(0xFF);
  4369     0F33  0875               	movf	radio_hal_SpiReadData@i,w
  4370     0F34  0771               	addwf	radio_hal_SpiReadData@pData,w
  4371     0F35  00F2               	movwf	??_radio_hal_SpiReadData
  4372     0F36  0872               	movf	??_radio_hal_SpiReadData,w
  4373     0F37  0084               	movwf	4
  4374     0F38  30FF               	movlw	255
  4375     0F39  158A  2672  158A   	fcall	_SPI_Read
  4376     0F3C  1383               	bcf	3,7	;select IRP bank0
  4377     0F3D  0080               	movwf	0
  4378     0F3E                     l2422:
  4379                           
  4380                           ;Si4463/radio_hal.c: 42:  }
  4381     0F3E  3001               	movlw	1
  4382     0F3F  07F5               	addwf	radio_hal_SpiReadData@i,f
  4383     0F40  1803               	skipnc
  4384     0F41  0AF6               	incf	radio_hal_SpiReadData@i+1,f
  4385     0F42  3000               	movlw	0
  4386     0F43  07F6               	addwf	radio_hal_SpiReadData@i+1,f
  4387     0F44                     l2424:
  4388     0F44  0874               	movf	radio_hal_SpiReadData@byteCount,w
  4389     0F45  00F2               	movwf	??_radio_hal_SpiReadData
  4390     0F46  01F3               	clrf	??_radio_hal_SpiReadData+1
  4391     0F47  0873               	movf	??_radio_hal_SpiReadData+1,w
  4392     0F48  0276               	subwf	radio_hal_SpiReadData@i+1,w
  4393     0F49  1D03               	skipz
  4394     0F4A  2F4D               	goto	u1425
  4395     0F4B  0872               	movf	??_radio_hal_SpiReadData,w
  4396     0F4C  0275               	subwf	radio_hal_SpiReadData@i,w
  4397     0F4D                     u1425:
  4398     0F4D  1C03               	skipc
  4399     0F4E  2F50               	goto	u1421
  4400     0F4F  2F51               	goto	u1420
  4401     0F50                     u1421:
  4402     0F50  2F33               	goto	l2420
  4403     0F51                     u1420:
  4404     0F51                     l279:
  4405     0F51  0008               	return
  4406     0F52                     __end_of_radio_hal_SpiReadData:
  4407                           
  4408                           	psect	text23
  4409     0E2C                     __ptext23:	
  4410 ;; *************** function _radio_hal_SpiReadByte *****************
  4411 ;; Defined at:
  4412 ;;		line 27 in file "Si4463/radio_hal.c"
  4413 ;; Parameters:    Size  Location     Type
  4414 ;;		None
  4415 ;; Auto vars:     Size  Location     Type
  4416 ;;		None
  4417 ;; Return value:  Size  Location     Type
  4418 ;;                  1    wreg      unsigned char 
  4419 ;; Registers used:
  4420 ;;		wreg, pclath, cstack
  4421 ;; Tracked objects:
  4422 ;;		On entry : 0/0
  4423 ;;		On exit  : 0/0
  4424 ;;		Unchanged: 0/0
  4425 ;; Data sizes:     COMMON   BANK0   BANK1   BANK2
  4426 ;;      Params:         0       0       0       0
  4427 ;;      Locals:         0       0       0       0
  4428 ;;      Temps:          0       0       0       0
  4429 ;;      Totals:         0       0       0       0
  4430 ;;Total ram usage:        0 bytes
  4431 ;; Hardware stack levels used: 1
  4432 ;; Hardware stack levels required when called: 1
  4433 ;; This function calls:
  4434 ;;		_SPI_Read
  4435 ;; This function is called by:
  4436 ;;		_radio_comm_GetResp
  4437 ;; This function uses a non-reentrant model
  4438 ;;
  4439                           
  4440     0E2C                     _radio_hal_SpiReadByte:	
  4441                           ;psect for function _radio_hal_SpiReadByte
  4442                           
  4443     0E2C                     l2414:	
  4444                           ;incstack = 0
  4445                           ; Regs used in _radio_hal_SpiReadByte: [wreg+pclath+cstack]
  4446                           
  4447                           
  4448                           ;Si4463/radio_hal.c: 28:  return SPI_Read(0xFF);
  4449     0E2C  30FF               	movlw	255
  4450     0E2D  158A  2672  158A   	fcall	_SPI_Read
  4451     0E30                     l267:
  4452     0E30  0008               	return
  4453     0E31                     __end_of_radio_hal_SpiReadByte:
  4454                           
  4455                           	psect	text24
  4456     0E72                     __ptext24:	
  4457 ;; *************** function _SPI_Read *****************
  4458 ;; Defined at:
  4459 ;;		line 60 in file "src/chipset.c"
  4460 ;; Parameters:    Size  Location     Type
  4461 ;;  data            1    wreg     unsigned char 
  4462 ;; Auto vars:     Size  Location     Type
  4463 ;;  data            1    0[COMMON] unsigned char 
  4464 ;; Return value:  Size  Location     Type
  4465 ;;                  1    wreg      unsigned char 
  4466 ;; Registers used:
  4467 ;;		wreg
  4468 ;; Tracked objects:
  4469 ;;		On entry : 0/0
  4470 ;;		On exit  : 0/0
  4471 ;;		Unchanged: 0/0
  4472 ;; Data sizes:     COMMON   BANK0   BANK1   BANK2
  4473 ;;      Params:         0       0       0       0
  4474 ;;      Locals:         1       0       0       0
  4475 ;;      Temps:          0       0       0       0
  4476 ;;      Totals:         1       0       0       0
  4477 ;;Total ram usage:        1 bytes
  4478 ;; Hardware stack levels used: 1
  4479 ;; This function calls:
  4480 ;;		Nothing
  4481 ;; This function is called by:
  4482 ;;		_radio_hal_SpiReadByte
  4483 ;;		_radio_hal_SpiReadData
  4484 ;;		_SPI_Read_Data
  4485 ;; This function uses a non-reentrant model
  4486 ;;
  4487                           
  4488     0E72                     _SPI_Read:	
  4489                           ;psect for function _SPI_Read
  4490                           
  4491                           
  4492                           ;incstack = 0
  4493                           ; Regs used in _SPI_Read: [wreg]
  4494                           ;SPI_Read@data stored from wreg
  4495     0E72  00F0               	movwf	SPI_Read@data
  4496     0E73                     l2404:
  4497                           
  4498                           ;src/chipset.c: 61:     SSPBUF = data;
  4499     0E73  0870               	movf	SPI_Read@data,w
  4500     0E74  1283               	bcf	3,5	;RP0=0, select bank0
  4501     0E75  1303               	bcf	3,6	;RP1=0, select bank0
  4502     0E76  0093               	movwf	19	;volatile
  4503     0E77                     l64:	
  4504                           ;src/chipset.c: 62:     while(!SSPSTATbits.BF);
  4505                           
  4506     0E77  1683               	bsf	3,5	;RP0=1, select bank1
  4507     0E78  1303               	bcf	3,6	;RP1=0, select bank1
  4508     0E79  1C14               	btfss	20,0	;volatile
  4509     0E7A  2E7C               	goto	u1411
  4510     0E7B  2E7D               	goto	u1410
  4511     0E7C                     u1411:
  4512     0E7C  2E77               	goto	l64
  4513     0E7D                     u1410:
  4514     0E7D                     l2406:
  4515                           
  4516                           ;src/chipset.c: 63:     return SSPBUF;
  4517     0E7D  1283               	bcf	3,5	;RP0=0, select bank0
  4518     0E7E  1303               	bcf	3,6	;RP1=0, select bank0
  4519     0E7F  0813               	movf	19,w	;volatile
  4520     0E80                     l67:
  4521     0E80  0008               	return
  4522     0E81                     __end_of_SPI_Read:
  4523                           
  4524                           	psect	text25
  4525     0E12                     __ptext25:	
  4526 ;; *************** function _radio_hal_SetNsel *****************
  4527 ;; Defined at:
  4528 ;;		line 15 in file "Si4463/radio_hal.c"
  4529 ;; Parameters:    Size  Location     Type
  4530 ;;		None
  4531 ;; Auto vars:     Size  Location     Type
  4532 ;;		None
  4533 ;; Return value:  Size  Location     Type
  4534 ;;                  1    wreg      void 
  4535 ;; Registers used:
  4536 ;;		None
  4537 ;; Tracked objects:
  4538 ;;		On entry : 0/0
  4539 ;;		On exit  : 0/0
  4540 ;;		Unchanged: 0/0
  4541 ;; Data sizes:     COMMON   BANK0   BANK1   BANK2
  4542 ;;      Params:         0       0       0       0
  4543 ;;      Locals:         0       0       0       0
  4544 ;;      Temps:          0       0       0       0
  4545 ;;      Totals:         0       0       0       0
  4546 ;;Total ram usage:        0 bytes
  4547 ;; Hardware stack levels used: 1
  4548 ;; This function calls:
  4549 ;;		Nothing
  4550 ;; This function is called by:
  4551 ;;		_radio_comm_GetResp
  4552 ;;		_radio_comm_SendCmd
  4553 ;;		_radio_comm_WriteData
  4554 ;;		_radio_comm_ReadData
  4555 ;; This function uses a non-reentrant model
  4556 ;;
  4557                           
  4558     0E12                     _radio_hal_SetNsel:	
  4559                           ;psect for function _radio_hal_SetNsel
  4560                           
  4561     0E12                     l2426:	
  4562                           ;incstack = 0
  4563                           ; Regs used in _radio_hal_SetNsel: []
  4564                           
  4565                           
  4566                           ;Si4463/radio_hal.c: 16:      RA5 = 1;
  4567     0E12  1283               	bcf	3,5	;RP0=0, select bank0
  4568     0E13  1303               	bcf	3,6	;RP1=0, select bank0
  4569     0E14  1685               	bsf	5,5	;volatile
  4570     0E15                     l258:
  4571     0E15  0008               	return
  4572     0E16                     __end_of_radio_hal_SetNsel:
  4573                           
  4574                           	psect	text26
  4575     0E0E                     __ptext26:	
  4576 ;; *************** function _radio_hal_ClearNsel *****************
  4577 ;; Defined at:
  4578 ;;		line 11 in file "Si4463/radio_hal.c"
  4579 ;; Parameters:    Size  Location     Type
  4580 ;;		None
  4581 ;; Auto vars:     Size  Location     Type
  4582 ;;		None
  4583 ;; Return value:  Size  Location     Type
  4584 ;;                  1    wreg      void 
  4585 ;; Registers used:
  4586 ;;		None
  4587 ;; Tracked objects:
  4588 ;;		On entry : 0/0
  4589 ;;		On exit  : 0/0
  4590 ;;		Unchanged: 0/0
  4591 ;; Data sizes:     COMMON   BANK0   BANK1   BANK2
  4592 ;;      Params:         0       0       0       0
  4593 ;;      Locals:         0       0       0       0
  4594 ;;      Temps:          0       0       0       0
  4595 ;;      Totals:         0       0       0       0
  4596 ;;Total ram usage:        0 bytes
  4597 ;; Hardware stack levels used: 1
  4598 ;; This function calls:
  4599 ;;		Nothing
  4600 ;; This function is called by:
  4601 ;;		_radio_comm_GetResp
  4602 ;;		_radio_comm_SendCmd
  4603 ;;		_radio_comm_WriteData
  4604 ;;		_radio_comm_ReadData
  4605 ;; This function uses a non-reentrant model
  4606 ;;
  4607                           
  4608     0E0E                     _radio_hal_ClearNsel:	
  4609                           ;psect for function _radio_hal_ClearNsel
  4610                           
  4611     0E0E                     l2410:	
  4612                           ;incstack = 0
  4613                           ; Regs used in _radio_hal_ClearNsel: []
  4614                           
  4615                           
  4616                           ;Si4463/radio_hal.c: 12:     RA5 = 0;
  4617     0E0E  1283               	bcf	3,5	;RP0=0, select bank0
  4618     0E0F  1303               	bcf	3,6	;RP1=0, select bank0
  4619     0E10  1285               	bcf	5,5	;volatile
  4620     0E11                     l255:
  4621     0E11  0008               	return
  4622     0E12                     __end_of_radio_hal_ClearNsel:
  4623                           
  4624                           	psect	text27
  4625     0E31                     __ptext27:	
  4626 ;; *************** function _radio_hal_NirqLevel *****************
  4627 ;; Defined at:
  4628 ;;		line 19 in file "Si4463/radio_hal.c"
  4629 ;; Parameters:    Size  Location     Type
  4630 ;;		None
  4631 ;; Auto vars:     Size  Location     Type
  4632 ;;		None
  4633 ;; Return value:  Size  Location     Type
  4634 ;;                  1    wreg      unsigned char 
  4635 ;; Registers used:
  4636 ;;		wreg
  4637 ;; Tracked objects:
  4638 ;;		On entry : 0/0
  4639 ;;		On exit  : 0/0
  4640 ;;		Unchanged: 0/0
  4641 ;; Data sizes:     COMMON   BANK0   BANK1   BANK2
  4642 ;;      Params:         0       0       0       0
  4643 ;;      Locals:         0       0       0       0
  4644 ;;      Temps:          0       0       0       0
  4645 ;;      Totals:         0       0       0       0
  4646 ;;Total ram usage:        0 bytes
  4647 ;; Hardware stack levels used: 1
  4648 ;; This function calls:
  4649 ;;		Nothing
  4650 ;; This function is called by:
  4651 ;;		_si446x_configuration_init
  4652 ;;		_bRadio_Check_Tx_RX
  4653 ;; This function uses a non-reentrant model
  4654 ;;
  4655                           
  4656     0E31                     _radio_hal_NirqLevel:	
  4657                           ;psect for function _radio_hal_NirqLevel
  4658                           
  4659     0E31                     l1856:	
  4660                           ;incstack = 0
  4661                           ; Regs used in _radio_hal_NirqLevel: [wreg]
  4662                           
  4663                           
  4664                           ;Si4463/radio_hal.c: 20:     return RB0;
  4665     0E31  3000               	movlw	0
  4666     0E32  1283               	bcf	3,5	;RP0=0, select bank0
  4667     0E33  1303               	bcf	3,6	;RP1=0, select bank0
  4668     0E34  1806               	btfsc	6,0	;volatile
  4669     0E35  3001               	movlw	1
  4670     0E36                     l261:
  4671     0E36  0008               	return
  4672     0E37                     __end_of_radio_hal_NirqLevel:
  4673                           
  4674                           	psect	text28
  4675     0541                     __ptext28:	
  4676 ;; *************** function _sprintf *****************
  4677 ;; Defined at:
  4678 ;;		line 505 in file "C:\Program Files\Microchip\xc8\v2.41\pic\sources\c90\common\doprnt.c"
  4679 ;; Parameters:    Size  Location     Type
  4680 ;;  sp              1    wreg     PTR unsigned char 
  4681 ;;		 -> customRadioPacket(64), 
  4682 ;;  f               2    0[BANK0 ] PTR const unsigned char 
  4683 ;;		 -> STR_1(20), 
  4684 ;; Auto vars:     Size  Location     Type
  4685 ;;  sp              1   13[BANK0 ] PTR unsigned char 
  4686 ;;		 -> customRadioPacket(64), 
  4687 ;;  tmpval          4    0        struct .
  4688 ;;  val             2   11[BANK0 ] unsigned int 
  4689 ;;  cp              2    0        PTR const unsigned char 
  4690 ;;  len             2    0        unsigned int 
  4691 ;;  c               1   14[BANK0 ] unsigned char 
  4692 ;;  prec            1   10[BANK0 ] char 
  4693 ;;  flag            1    9[BANK0 ] unsigned char 
  4694 ;;  ap              1    8[BANK0 ] PTR void [1]
  4695 ;;		 -> ?_sprintf(2), 
  4696 ;; Return value:  Size  Location     Type
  4697 ;;                  2    0[BANK0 ] int 
  4698 ;; Registers used:
  4699 ;;		wreg, fsr0l, fsr0h, status,2, status,0, btemp+1, pclath, cstack
  4700 ;; Tracked objects:
  4701 ;;		On entry : 0/0
  4702 ;;		On exit  : 0/0
  4703 ;;		Unchanged: 0/0
  4704 ;; Data sizes:     COMMON   BANK0   BANK1   BANK2
  4705 ;;      Params:         0       4       0       0
  4706 ;;      Locals:         0       7       0       0
  4707 ;;      Temps:          0       4       0       0
  4708 ;;      Totals:         0      15       0       0
  4709 ;;Total ram usage:       15 bytes
  4710 ;; Hardware stack levels used: 1
  4711 ;; Hardware stack levels required when called: 1
  4712 ;; This function calls:
  4713 ;;		___lwdiv
  4714 ;;		___lwmod
  4715 ;; This function is called by:
  4716 ;;		_main
  4717 ;; This function uses a non-reentrant model
  4718 ;;
  4719                           
  4720     0541                     _sprintf:	
  4721                           ;psect for function _sprintf
  4722                           
  4723                           
  4724                           ;incstack = 0
  4725                           ; Regs used in _sprintf: [wreg-fsr0h+status,2+status,0+btemp+1+pclath+cstack]
  4726                           ;sprintf@sp stored from wreg
  4727     0541  1283               	bcf	3,5	;RP0=0, select bank0
  4728     0542  1303               	bcf	3,6	;RP1=0, select bank0
  4729     0543  00CF               	movwf	sprintf@sp
  4730     0544                     l2610:
  4731                           
  4732                           ;C:\Program Files\Microchip\xc8\v2.41\pic\sources\c90\common\doprnt.c: 505: sprintf(char
      +                           * sp, const char * f, ...);C:\Program Files\Microchip\xc8\v2.41\pic\sources\c90\common\
      +                          doprnt.c: 506: {;C:\Program Files\Microchip\xc8\v2.41\pic\sources\c90\common\doprnt.c: 5
      +                          07:  va_list ap;;C:\Program Files\Microchip\xc8\v2.41\pic\sources\c90\common\doprnt.c: 5
      +                          12:  char c;;C:\Program Files\Microchip\xc8\v2.41\pic\sources\c90\common\doprnt.c: 521: 
      +                           signed char prec;;C:\Program Files\Microchip\xc8\v2.41\pic\sources\c90\common\doprnt.c:
      +                           525:  unsigned char flag;
  4733     0544  3044               	movlw	(low ((?_sprintf| 0+2)))& (0+255)
  4734     0545  00CA               	movwf	sprintf@ap
  4735                           
  4736                           ;C:\Program Files\Microchip\xc8\v2.41\pic\sources\c90\common\doprnt.c: 553:  while((c = 
      +                          *f++)) {
  4737     0546  2E06               	goto	l2664
  4738     0547                     l2612:
  4739                           
  4740                           ;C:\Program Files\Microchip\xc8\v2.41\pic\sources\c90\common\doprnt.c: 555:   if(c != '%
      +                          ')
  4741     0547  3025               	movlw	37
  4742     0548  0650               	xorwf	sprintf@c,w
  4743     0549  1903               	btfsc	3,2
  4744     054A  2D4C               	goto	u1601
  4745     054B  2D4D               	goto	u1600
  4746     054C                     u1601:
  4747     054C  2D57               	goto	l2618
  4748     054D                     u1600:
  4749     054D                     l2614:
  4750                           
  4751                           ;C:\Program Files\Microchip\xc8\v2.41\pic\sources\c90\common\doprnt.c: 557:   {;C:\Progr
      +                          am Files\Microchip\xc8\v2.41\pic\sources\c90\common\doprnt.c: 558:    ((*sp++ = (c)));
  4752     054D  084F               	movf	sprintf@sp,w
  4753     054E  0084               	movwf	4
  4754     054F  0850               	movf	sprintf@c,w
  4755     0550  1383               	bcf	3,7	;select IRP bank0
  4756     0551  0080               	movwf	0
  4757     0552                     l2616:
  4758     0552  3001               	movlw	1
  4759     0553  00FF               	movwf	btemp+1
  4760     0554  087F               	movf	btemp+1,w
  4761     0555  07CF               	addwf	sprintf@sp,f
  4762                           
  4763                           ;C:\Program Files\Microchip\xc8\v2.41\pic\sources\c90\common\doprnt.c: 559:    continue;
  4764     0556  2E06               	goto	l2664
  4765     0557                     l2618:
  4766                           
  4767                           ;C:\Program Files\Microchip\xc8\v2.41\pic\sources\c90\common\doprnt.c: 565:   flag = 0;
  4768     0557  01CB               	clrf	sprintf@flag
  4769     0558                     l2622:	
  4770                           ;C:\Program Files\Microchip\xc8\v2.41\pic\sources\c90\common\doprnt.c: 661:   switch(c =
      +                           *f++) {
  4771                           
  4772     0558  0843               	movf	sprintf@f+1,w
  4773     0559  00C7               	movwf	??_sprintf+1
  4774     055A  0842               	movf	sprintf@f,w
  4775     055B  00C6               	movwf	??_sprintf
  4776     055C  0AC2               	incf	sprintf@f,f
  4777     055D  1903               	skipnz
  4778     055E  0AC3               	incf	sprintf@f+1,f
  4779     055F  0847               	movf	??_sprintf+1,w
  4780     0560  00FF               	movwf	btemp+1
  4781     0561  0846               	movf	??_sprintf,w
  4782     0562  0084               	movwf	4
  4783     0563  118A  2100  118A   	fcall	stringtab
  4784     0566  00D0               	movwf	sprintf@c
  4785     0567  00C8               	movwf	??_sprintf+2
  4786     0568  01C9               	clrf	??_sprintf+3
  4787                           
  4788                           ; Switch on 2 bytes has been partitioned into a top level switch of size 1, and 1 sub-sw
      +                          itches
  4789                           ; Switch size 1, requested type "simple"
  4790                           ; Number of cases is 1, Range of values is 0 to 0
  4791                           ; switch strategies available:
  4792                           ; Name         Instructions Cycles
  4793                           ; simple_byte            4     3 (average)
  4794                           ; direct_byte            9     7 (fixed)
  4795                           ; jumptable            260     6 (fixed)
  4796                           ;	Chosen strategy is simple_byte
  4797     0569  0849               	movf	??_sprintf+3,w
  4798     056A  3A00               	xorlw	0	; case 0
  4799     056B  1903               	skipnz
  4800     056C  2D6E               	goto	l2900
  4801     056D  2E06               	goto	l2664
  4802     056E                     l2900:
  4803                           
  4804                           ; Switch size 1, requested type "simple"
  4805                           ; Number of cases is 3, Range of values is 0 to 105
  4806                           ; switch strategies available:
  4807                           ; Name         Instructions Cycles
  4808                           ; simple_byte           10     6 (average)
  4809                           ; direct_byte          219     7 (fixed)
  4810                           ; jumptable            260     6 (fixed)
  4811                           ;	Chosen strategy is simple_byte
  4812     056E  0848               	movf	??_sprintf+2,w
  4813     056F  3A00               	xorlw	0	; case 0
  4814     0570  1903               	skipnz
  4815     0571  2E1A               	goto	l2666
  4816     0572  3A64               	xorlw	100	; case 100
  4817     0573  1903               	skipnz
  4818     0574  2D79               	goto	l2624
  4819     0575  3A0D               	xorlw	13	; case 105
  4820     0576  1903               	skipnz
  4821     0577  2D79               	goto	l2624
  4822     0578  2E06               	goto	l2664
  4823     0579                     l2624:
  4824                           
  4825                           ;C:\Program Files\Microchip\xc8\v2.41\pic\sources\c90\common\doprnt.c: 1279:   {;C:\Prog
      +                          ram Files\Microchip\xc8\v2.41\pic\sources\c90\common\doprnt.c: 1285:     val = (unsigned
      +                           int)(*(int *)__va_arg((*(int **)ap), (int)0));
  4826     0579  084A               	movf	sprintf@ap,w
  4827     057A  0084               	movwf	4
  4828     057B  1383               	bcf	3,7	;select IRP bank0
  4829     057C  0800               	movf	0,w
  4830     057D  00CD               	movwf	sprintf@val
  4831     057E  0A84               	incf	4,f
  4832     057F  0800               	movf	0,w
  4833     0580  00CE               	movwf	sprintf@val+1
  4834     0581                     l2626:
  4835     0581  3002               	movlw	2
  4836     0582  00FF               	movwf	btemp+1
  4837     0583  087F               	movf	btemp+1,w
  4838     0584  07CA               	addwf	sprintf@ap,f
  4839     0585                     l2628:
  4840                           
  4841                           ;C:\Program Files\Microchip\xc8\v2.41\pic\sources\c90\common\doprnt.c: 1287:    if((int)
      +                          val < 0) {
  4842     0585  1FCE               	btfss	sprintf@val+1,7
  4843     0586  2D88               	goto	u1611
  4844     0587  2D89               	goto	u1610
  4845     0588                     u1611:
  4846     0588  2D92               	goto	l2634
  4847     0589                     u1610:
  4848     0589                     l2630:
  4849                           
  4850                           ;C:\Program Files\Microchip\xc8\v2.41\pic\sources\c90\common\doprnt.c: 1288:     flag |=
      +                           0x03;
  4851     0589  3003               	movlw	3
  4852     058A  00FF               	movwf	btemp+1
  4853     058B  087F               	movf	btemp+1,w
  4854     058C  04CB               	iorwf	sprintf@flag,f
  4855     058D                     l2632:
  4856                           
  4857                           ;C:\Program Files\Microchip\xc8\v2.41\pic\sources\c90\common\doprnt.c: 1289:     val = -
      +                          val;
  4858     058D  09CD               	comf	sprintf@val,f
  4859     058E  09CE               	comf	sprintf@val+1,f
  4860     058F  0ACD               	incf	sprintf@val,f
  4861     0590  1903               	skipnz
  4862     0591  0ACE               	incf	sprintf@val+1,f
  4863     0592                     l2634:
  4864                           
  4865                           ;C:\Program Files\Microchip\xc8\v2.41\pic\sources\c90\common\doprnt.c: 1292:   };C:\Prog
      +                          ram Files\Microchip\xc8\v2.41\pic\sources\c90\common\doprnt.c: 1331:    for(c = 1 ; c !=
      +                           sizeof dpowers/sizeof dpowers[0] ; c++)
  4866     0592  01D0               	clrf	sprintf@c
  4867     0593  0AD0               	incf	sprintf@c,f
  4868     0594                     l2640:
  4869                           
  4870                           ;C:\Program Files\Microchip\xc8\v2.41\pic\sources\c90\common\doprnt.c: 1332:     if(val 
      +                          < dpowers[c])
  4871     0594  0850               	movf	sprintf@c,w
  4872     0595  00C6               	movwf	??_sprintf
  4873     0596  0746               	addwf	??_sprintf,w
  4874     0597  3E12               	addlw	low (_dpowers| (0+32768))
  4875     0598  0084               	movwf	4
  4876     0599  3081               	movlw	high (_dpowers| (0+32768))
  4877     059A  1803               	skipnc
  4878     059B  3E01               	addlw	1
  4879     059C  00FF               	movwf	btemp+1
  4880     059D  118A  2100  118A   	fcall	stringtab
  4881     05A0  00C7               	movwf	??_sprintf+1
  4882     05A1  118A  2100  118A   	fcall	stringtab
  4883     05A4  00C8               	movwf	??_sprintf+2
  4884     05A5  0848               	movf	??_sprintf+2,w
  4885     05A6  024E               	subwf	sprintf@val+1,w
  4886     05A7  1D03               	skipz
  4887     05A8  2DAB               	goto	u1625
  4888     05A9  0847               	movf	??_sprintf+1,w
  4889     05AA  024D               	subwf	sprintf@val,w
  4890     05AB                     u1625:
  4891     05AB  1803               	skipnc
  4892     05AC  2DAE               	goto	u1621
  4893     05AD  2DAF               	goto	u1620
  4894     05AE                     u1621:
  4895     05AE  2DB0               	goto	l2644
  4896     05AF                     u1620:
  4897     05AF  2DBA               	goto	l2648
  4898     05B0                     l2644:
  4899     05B0  3001               	movlw	1
  4900     05B1  00FF               	movwf	btemp+1
  4901     05B2  087F               	movf	btemp+1,w
  4902     05B3  07D0               	addwf	sprintf@c,f
  4903     05B4                     l2646:
  4904     05B4  3005               	movlw	5
  4905     05B5  0650               	xorwf	sprintf@c,w
  4906     05B6  1D03               	btfss	3,2
  4907     05B7  2DB9               	goto	u1631
  4908     05B8  2DBA               	goto	u1630
  4909     05B9                     u1631:
  4910     05B9  2D94               	goto	l2640
  4911     05BA                     u1630:
  4912     05BA                     l2648:
  4913                           
  4914                           ;C:\Program Files\Microchip\xc8\v2.41\pic\sources\c90\common\doprnt.c: 1448:   {;C:\Prog
      +                          ram Files\Microchip\xc8\v2.41\pic\sources\c90\common\doprnt.c: 1464:    if(flag & 0x03)
  4915     05BA  084B               	movf	sprintf@flag,w
  4916     05BB  3903               	andlw	3
  4917     05BC  1903               	btfsc	3,2
  4918     05BD  2DBF               	goto	u1641
  4919     05BE  2DC0               	goto	u1640
  4920     05BF                     u1641:
  4921     05BF  2DC9               	goto	l2654
  4922     05C0                     u1640:
  4923     05C0                     l2650:
  4924                           
  4925                           ;C:\Program Files\Microchip\xc8\v2.41\pic\sources\c90\common\doprnt.c: 1465:     ((*sp++
      +                           = ('-')));
  4926     05C0  084F               	movf	sprintf@sp,w
  4927     05C1  0084               	movwf	4
  4928     05C2  302D               	movlw	45
  4929     05C3  1383               	bcf	3,7	;select IRP bank0
  4930     05C4  0080               	movwf	0
  4931     05C5                     l2652:
  4932     05C5  3001               	movlw	1
  4933     05C6  00FF               	movwf	btemp+1
  4934     05C7  087F               	movf	btemp+1,w
  4935     05C8  07CF               	addwf	sprintf@sp,f
  4936     05C9                     l2654:
  4937                           
  4938                           ;C:\Program Files\Microchip\xc8\v2.41\pic\sources\c90\common\doprnt.c: 1495:   };C:\Prog
      +                          ram Files\Microchip\xc8\v2.41\pic\sources\c90\common\doprnt.c: 1498:   prec = c;
  4939     05C9  0850               	movf	sprintf@c,w
  4940     05CA  00CC               	movwf	sprintf@prec
  4941                           
  4942                           ;C:\Program Files\Microchip\xc8\v2.41\pic\sources\c90\common\doprnt.c: 1500:   while(pre
      +                          c--) {
  4943     05CB  2DFD               	goto	l2662
  4944     05CC                     l2656:
  4945                           
  4946                           ;C:\Program Files\Microchip\xc8\v2.41\pic\sources\c90\common\doprnt.c: 1504:    {;C:\Pro
      +                          gram Files\Microchip\xc8\v2.41\pic\sources\c90\common\doprnt.c: 1515:     c = (val / dpo
      +                          wers[(unsigned char)prec]) % 10 + '0';
  4947     05CC  300A               	movlw	10
  4948     05CD  00F7               	movwf	___lwmod@divisor
  4949     05CE  3000               	movlw	0
  4950     05CF  00F8               	movwf	___lwmod@divisor+1
  4951     05D0  084C               	movf	sprintf@prec,w
  4952     05D1  00C6               	movwf	??_sprintf
  4953     05D2  0746               	addwf	??_sprintf,w
  4954     05D3  3E12               	addlw	low (_dpowers| (0+32768))
  4955     05D4  0084               	movwf	4
  4956     05D5  3081               	movlw	high (_dpowers| (0+32768))
  4957     05D6  1803               	skipnc
  4958     05D7  3E01               	addlw	1
  4959     05D8  00FF               	movwf	btemp+1
  4960     05D9  118A  2100  118A   	fcall	stringtab
  4961     05DC  00F0               	movwf	___lwdiv@divisor
  4962     05DD  118A  2100  118A   	fcall	stringtab
  4963     05E0  00F1               	movwf	___lwdiv@divisor+1
  4964     05E1  084E               	movf	sprintf@val+1,w
  4965     05E2  00F3               	movwf	___lwdiv@dividend+1
  4966     05E3  084D               	movf	sprintf@val,w
  4967     05E4  00F2               	movwf	___lwdiv@dividend
  4968     05E5  118A  2029  118A   	fcall	___lwdiv
  4969     05E8  0871               	movf	?___lwdiv+1,w
  4970     05E9  00FA               	movwf	___lwmod@dividend+1
  4971     05EA  0870               	movf	?___lwdiv,w
  4972     05EB  00F9               	movwf	___lwmod@dividend
  4973     05EC  118A  20A9  118A   	fcall	___lwmod
  4974     05EF  0877               	movf	?___lwmod,w
  4975     05F0  3E30               	addlw	48
  4976     05F1  1283               	bcf	3,5	;RP0=0, select bank0
  4977     05F2  1303               	bcf	3,6	;RP1=0, select bank0
  4978     05F3  00D0               	movwf	sprintf@c
  4979     05F4                     l2658:
  4980                           
  4981                           ;C:\Program Files\Microchip\xc8\v2.41\pic\sources\c90\common\doprnt.c: 1549:    };C:\Pro
      +                          gram Files\Microchip\xc8\v2.41\pic\sources\c90\common\doprnt.c: 1550:    ((*sp++ = (c)))
      +                          ;
  4982     05F4  084F               	movf	sprintf@sp,w
  4983     05F5  0084               	movwf	4
  4984     05F6  0850               	movf	sprintf@c,w
  4985     05F7  1383               	bcf	3,7	;select IRP bank0
  4986     05F8  0080               	movwf	0
  4987     05F9                     l2660:
  4988     05F9  3001               	movlw	1
  4989     05FA  00FF               	movwf	btemp+1
  4990     05FB  087F               	movf	btemp+1,w
  4991     05FC  07CF               	addwf	sprintf@sp,f
  4992     05FD                     l2662:
  4993                           
  4994                           ;C:\Program Files\Microchip\xc8\v2.41\pic\sources\c90\common\doprnt.c: 1500:   while(pre
      +                          c--) {
  4995     05FD  30FF               	movlw	255
  4996     05FE  00FF               	movwf	btemp+1
  4997     05FF  087F               	movf	btemp+1,w
  4998     0600  07CC               	addwf	sprintf@prec,f
  4999     0601  0A4C               	incf	sprintf@prec,w
  5000     0602  1D03               	btfss	3,2
  5001     0603  2E05               	goto	u1651
  5002     0604  2E06               	goto	u1650
  5003     0605                     u1651:
  5004     0605  2DCC               	goto	l2656
  5005     0606                     u1650:
  5006     0606                     l2664:
  5007                           
  5008                           ;C:\Program Files\Microchip\xc8\v2.41\pic\sources\c90\common\doprnt.c: 553:  while((c = 
      +                          *f++)) {
  5009     0606  0843               	movf	sprintf@f+1,w
  5010     0607  00C7               	movwf	??_sprintf+1
  5011     0608  0842               	movf	sprintf@f,w
  5012     0609  00C6               	movwf	??_sprintf
  5013     060A  0AC2               	incf	sprintf@f,f
  5014     060B  1903               	skipnz
  5015     060C  0AC3               	incf	sprintf@f+1,f
  5016     060D  0847               	movf	??_sprintf+1,w
  5017     060E  00FF               	movwf	btemp+1
  5018     060F  0846               	movf	??_sprintf,w
  5019     0610  0084               	movwf	4
  5020     0611  118A  2100  118A   	fcall	stringtab
  5021     0614  00D0               	movwf	sprintf@c
  5022     0615  0850               	movf	sprintf@c,w
  5023     0616  1D03               	btfss	3,2
  5024     0617  2E19               	goto	u1661
  5025     0618  2E1A               	goto	u1660
  5026     0619                     u1661:
  5027     0619  2D47               	goto	l2612
  5028     061A                     u1660:
  5029     061A                     l2666:
  5030                           
  5031                           ;C:\Program Files\Microchip\xc8\v2.41\pic\sources\c90\common\doprnt.c: 1564:  *sp = 0;
  5032     061A  084F               	movf	sprintf@sp,w
  5033     061B  0084               	movwf	4
  5034     061C  1383               	bcf	3,7	;select IRP bank0
  5035     061D  0180               	clrf	0
  5036     061E                     l492:
  5037     061E  0008               	return
  5038     061F                     __end_of_sprintf:
  5039                           
  5040                           	psect	text29
  5041     00A9                     __ptext29:	
  5042 ;; *************** function ___lwmod *****************
  5043 ;; Defined at:
  5044 ;;		line 5 in file "C:\Program Files\Microchip\xc8\v2.41\pic\sources\c90\common\lwmod.c"
  5045 ;; Parameters:    Size  Location     Type
  5046 ;;  divisor         2    7[COMMON] unsigned int 
  5047 ;;  dividend        2    9[COMMON] unsigned int 
  5048 ;; Auto vars:     Size  Location     Type
  5049 ;;  counter         1   11[COMMON] unsigned char 
  5050 ;; Return value:  Size  Location     Type
  5051 ;;                  2    7[COMMON] unsigned int 
  5052 ;; Registers used:
  5053 ;;		wreg, status,2, status,0, btemp+1
  5054 ;; Tracked objects:
  5055 ;;		On entry : 0/0
  5056 ;;		On exit  : 0/0
  5057 ;;		Unchanged: 0/0
  5058 ;; Data sizes:     COMMON   BANK0   BANK1   BANK2
  5059 ;;      Params:         4       0       0       0
  5060 ;;      Locals:         1       0       0       0
  5061 ;;      Temps:          0       0       0       0
  5062 ;;      Totals:         5       0       0       0
  5063 ;;Total ram usage:        5 bytes
  5064 ;; Hardware stack levels used: 1
  5065 ;; This function calls:
  5066 ;;		Nothing
  5067 ;; This function is called by:
  5068 ;;		_sprintf
  5069 ;; This function uses a non-reentrant model
  5070 ;;
  5071                           
  5072     00A9                     ___lwmod:	
  5073                           ;psect for function ___lwmod
  5074                           
  5075     00A9                     l2066:	
  5076                           ;incstack = 0
  5077                           ; Regs used in ___lwmod: [wreg+status,2+status,0+btemp+1]
  5078                           
  5079     00A9  0877               	movf	___lwmod@divisor,w
  5080     00AA  0478               	iorwf	___lwmod@divisor+1,w
  5081     00AB  1903               	btfsc	3,2
  5082     00AC  28AE               	goto	u1131
  5083     00AD  28AF               	goto	u1130
  5084     00AE                     u1131:
  5085     00AE  28DE               	goto	l2084
  5086     00AF                     u1130:
  5087     00AF                     l2068:
  5088     00AF  01FB               	clrf	___lwmod@counter
  5089     00B0  0AFB               	incf	___lwmod@counter,f
  5090     00B1  28BD               	goto	l2074
  5091     00B2                     l2070:
  5092     00B2  3001               	movlw	1
  5093     00B3                     u1145:
  5094     00B3  1003               	clrc
  5095     00B4  0DF7               	rlf	___lwmod@divisor,f
  5096     00B5  0DF8               	rlf	___lwmod@divisor+1,f
  5097     00B6  3EFF               	addlw	-1
  5098     00B7  1D03               	skipz
  5099     00B8  28B3               	goto	u1145
  5100     00B9                     l2072:
  5101     00B9  3001               	movlw	1
  5102     00BA  00FF               	movwf	btemp+1
  5103     00BB  087F               	movf	btemp+1,w
  5104     00BC  07FB               	addwf	___lwmod@counter,f
  5105     00BD                     l2074:
  5106     00BD  1FF8               	btfss	___lwmod@divisor+1,7
  5107     00BE  28C0               	goto	u1151
  5108     00BF  28C1               	goto	u1150
  5109     00C0                     u1151:
  5110     00C0  28B2               	goto	l2070
  5111     00C1                     u1150:
  5112     00C1                     l2076:
  5113     00C1  0878               	movf	___lwmod@divisor+1,w
  5114     00C2  027A               	subwf	___lwmod@dividend+1,w
  5115     00C3  1D03               	skipz
  5116     00C4  28C7               	goto	u1165
  5117     00C5  0877               	movf	___lwmod@divisor,w
  5118     00C6  0279               	subwf	___lwmod@dividend,w
  5119     00C7                     u1165:
  5120     00C7  1C03               	skipc
  5121     00C8  28CA               	goto	u1161
  5122     00C9  28CB               	goto	u1160
  5123     00CA                     u1161:
  5124     00CA  28D1               	goto	l2080
  5125     00CB                     u1160:
  5126     00CB                     l2078:
  5127     00CB  0877               	movf	___lwmod@divisor,w
  5128     00CC  02F9               	subwf	___lwmod@dividend,f
  5129     00CD  0878               	movf	___lwmod@divisor+1,w
  5130     00CE  1C03               	skipc
  5131     00CF  03FA               	decf	___lwmod@dividend+1,f
  5132     00D0  02FA               	subwf	___lwmod@dividend+1,f
  5133     00D1                     l2080:
  5134     00D1  3001               	movlw	1
  5135     00D2                     u1175:
  5136     00D2  1003               	clrc
  5137     00D3  0CF8               	rrf	___lwmod@divisor+1,f
  5138     00D4  0CF7               	rrf	___lwmod@divisor,f
  5139     00D5  3EFF               	addlw	-1
  5140     00D6  1D03               	skipz
  5141     00D7  28D2               	goto	u1175
  5142     00D8                     l2082:
  5143     00D8  3001               	movlw	1
  5144     00D9  02FB               	subwf	___lwmod@counter,f
  5145     00DA  1D03               	btfss	3,2
  5146     00DB  28DD               	goto	u1181
  5147     00DC  28DE               	goto	u1180
  5148     00DD                     u1181:
  5149     00DD  28C1               	goto	l2076
  5150     00DE                     u1180:
  5151     00DE                     l2084:
  5152     00DE  087A               	movf	___lwmod@dividend+1,w
  5153     00DF  00F8               	movwf	?___lwmod+1
  5154     00E0  0879               	movf	___lwmod@dividend,w
  5155     00E1  00F7               	movwf	?___lwmod
  5156     00E2                     l778:
  5157     00E2  0008               	return
  5158     00E3                     __end_of___lwmod:
  5159                           
  5160                           	psect	text30
  5161     0029                     __ptext30:	
  5162 ;; *************** function ___lwdiv *****************
  5163 ;; Defined at:
  5164 ;;		line 5 in file "C:\Program Files\Microchip\xc8\v2.41\pic\sources\c90\common\lwdiv.c"
  5165 ;; Parameters:    Size  Location     Type
  5166 ;;  divisor         2    0[COMMON] unsigned int 
  5167 ;;  dividend        2    2[COMMON] unsigned int 
  5168 ;; Auto vars:     Size  Location     Type
  5169 ;;  quotient        2    4[COMMON] unsigned int 
  5170 ;;  counter         1    6[COMMON] unsigned char 
  5171 ;; Return value:  Size  Location     Type
  5172 ;;                  2    0[COMMON] unsigned int 
  5173 ;; Registers used:
  5174 ;;		wreg, status,2, status,0, btemp+1
  5175 ;; Tracked objects:
  5176 ;;		On entry : 0/0
  5177 ;;		On exit  : 0/0
  5178 ;;		Unchanged: 0/0
  5179 ;; Data sizes:     COMMON   BANK0   BANK1   BANK2
  5180 ;;      Params:         4       0       0       0
  5181 ;;      Locals:         3       0       0       0
  5182 ;;      Temps:          0       0       0       0
  5183 ;;      Totals:         7       0       0       0
  5184 ;;Total ram usage:        7 bytes
  5185 ;; Hardware stack levels used: 1
  5186 ;; This function calls:
  5187 ;;		Nothing
  5188 ;; This function is called by:
  5189 ;;		_sprintf
  5190 ;; This function uses a non-reentrant model
  5191 ;;
  5192                           
  5193     0029                     ___lwdiv:	
  5194                           ;psect for function ___lwdiv
  5195                           
  5196     0029                     l2040:	
  5197                           ;incstack = 0
  5198                           ; Regs used in ___lwdiv: [wreg+status,2+status,0+btemp+1]
  5199                           
  5200     0029  01F4               	clrf	___lwdiv@quotient
  5201     002A  01F5               	clrf	___lwdiv@quotient+1
  5202     002B                     l2042:
  5203     002B  0870               	movf	___lwdiv@divisor,w
  5204     002C  0471               	iorwf	___lwdiv@divisor+1,w
  5205     002D  1903               	btfsc	3,2
  5206     002E  2830               	goto	u1061
  5207     002F  2831               	goto	u1060
  5208     0030                     u1061:
  5209     0030  2868               	goto	l2062
  5210     0031                     u1060:
  5211     0031                     l2044:
  5212     0031  01F6               	clrf	___lwdiv@counter
  5213     0032  0AF6               	incf	___lwdiv@counter,f
  5214     0033  283F               	goto	l2050
  5215     0034                     l2046:
  5216     0034  3001               	movlw	1
  5217     0035                     u1075:
  5218     0035  1003               	clrc
  5219     0036  0DF0               	rlf	___lwdiv@divisor,f
  5220     0037  0DF1               	rlf	___lwdiv@divisor+1,f
  5221     0038  3EFF               	addlw	-1
  5222     0039  1D03               	skipz
  5223     003A  2835               	goto	u1075
  5224     003B                     l2048:
  5225     003B  3001               	movlw	1
  5226     003C  00FF               	movwf	btemp+1
  5227     003D  087F               	movf	btemp+1,w
  5228     003E  07F6               	addwf	___lwdiv@counter,f
  5229     003F                     l2050:
  5230     003F  1FF1               	btfss	___lwdiv@divisor+1,7
  5231     0040  2842               	goto	u1081
  5232     0041  2843               	goto	u1080
  5233     0042                     u1081:
  5234     0042  2834               	goto	l2046
  5235     0043                     u1080:
  5236     0043                     l2052:
  5237     0043  3001               	movlw	1
  5238     0044                     u1095:
  5239     0044  1003               	clrc
  5240     0045  0DF4               	rlf	___lwdiv@quotient,f
  5241     0046  0DF5               	rlf	___lwdiv@quotient+1,f
  5242     0047  3EFF               	addlw	-1
  5243     0048  1D03               	skipz
  5244     0049  2844               	goto	u1095
  5245     004A  0871               	movf	___lwdiv@divisor+1,w
  5246     004B  0273               	subwf	___lwdiv@dividend+1,w
  5247     004C  1D03               	skipz
  5248     004D  2850               	goto	u1105
  5249     004E  0870               	movf	___lwdiv@divisor,w
  5250     004F  0272               	subwf	___lwdiv@dividend,w
  5251     0050                     u1105:
  5252     0050  1C03               	skipc
  5253     0051  2853               	goto	u1101
  5254     0052  2854               	goto	u1100
  5255     0053                     u1101:
  5256     0053  285B               	goto	l2058
  5257     0054                     u1100:
  5258     0054                     l2054:
  5259     0054  0870               	movf	___lwdiv@divisor,w
  5260     0055  02F2               	subwf	___lwdiv@dividend,f
  5261     0056  0871               	movf	___lwdiv@divisor+1,w
  5262     0057  1C03               	skipc
  5263     0058  03F3               	decf	___lwdiv@dividend+1,f
  5264     0059  02F3               	subwf	___lwdiv@dividend+1,f
  5265     005A                     l2056:
  5266     005A  1474               	bsf	___lwdiv@quotient,0
  5267     005B                     l2058:
  5268     005B  3001               	movlw	1
  5269     005C                     u1115:
  5270     005C  1003               	clrc
  5271     005D  0CF1               	rrf	___lwdiv@divisor+1,f
  5272     005E  0CF0               	rrf	___lwdiv@divisor,f
  5273     005F  3EFF               	addlw	-1
  5274     0060  1D03               	skipz
  5275     0061  285C               	goto	u1115
  5276     0062                     l2060:
  5277     0062  3001               	movlw	1
  5278     0063  02F6               	subwf	___lwdiv@counter,f
  5279     0064  1D03               	btfss	3,2
  5280     0065  2867               	goto	u1121
  5281     0066  2868               	goto	u1120
  5282     0067                     u1121:
  5283     0067  2843               	goto	l2052
  5284     0068                     u1120:
  5285     0068                     l2062:
  5286     0068  0875               	movf	___lwdiv@quotient+1,w
  5287     0069  00F1               	movwf	?___lwdiv+1
  5288     006A  0874               	movf	___lwdiv@quotient,w
  5289     006B  00F0               	movwf	?___lwdiv
  5290     006C                     l768:
  5291     006C  0008               	return
  5292     006D                     __end_of___lwdiv:
  5293                           
  5294                           	psect	text31
  5295     0ED7                     __ptext31:	
  5296 ;; *************** function _PIC16F883_SI4463_INIT *****************
  5297 ;; Defined at:
  5298 ;;		line 87 in file "src/main_pic16f883.c"
  5299 ;; Parameters:    Size  Location     Type
  5300 ;;		None
  5301 ;; Auto vars:     Size  Location     Type
  5302 ;;		None
  5303 ;; Return value:  Size  Location     Type
  5304 ;;                  1    wreg      void 
  5305 ;; Registers used:
  5306 ;;		wreg, status,2, status,0, btemp+1, pclath, cstack
  5307 ;; Tracked objects:
  5308 ;;		On entry : 0/0
  5309 ;;		On exit  : 0/0
  5310 ;;		Unchanged: 0/0
  5311 ;; Data sizes:     COMMON   BANK0   BANK1   BANK2
  5312 ;;      Params:         0       0       0       0
  5313 ;;      Locals:         0       0       0       0
  5314 ;;      Temps:          0       0       0       0
  5315 ;;      Totals:         0       0       0       0
  5316 ;;Total ram usage:        0 bytes
  5317 ;; Hardware stack levels used: 1
  5318 ;; Hardware stack levels required when called: 2
  5319 ;; This function calls:
  5320 ;;		_GPIO_Init
  5321 ;;		_Global_Interrupt
  5322 ;;		_SPI_Init
  5323 ;;		_Systick_Init
  5324 ;;		_UART_Init
  5325 ;; This function is called by:
  5326 ;;		_main
  5327 ;; This function uses a non-reentrant model
  5328 ;;
  5329                           
  5330     0ED7                     _PIC16F883_SI4463_INIT:	
  5331                           ;psect for function _PIC16F883_SI4463_INIT
  5332                           
  5333     0ED7                     l2088:	
  5334                           ;incstack = 0
  5335                           ; Regs used in _PIC16F883_SI4463_INIT: [wreg+status,2+status,0+btemp+1+pclath+cstack]
  5336                           
  5337                           
  5338                           ;src/main_pic16f883.c: 88:     Systick_Init();
  5339     0ED7  158A  2627  158A   	fcall	_Systick_Init
  5340     0EDA                     l2090:
  5341                           
  5342                           ;src/main_pic16f883.c: 89:     UART_Init(9600);
  5343     0EDA  3000               	movlw	0
  5344     0EDB  1283               	bcf	3,5	;RP0=0, select bank0
  5345     0EDC  1303               	bcf	3,6	;RP1=0, select bank0
  5346     0EDD  00CB               	movwf	UART_Init@baudrate+3
  5347     0EDE  3000               	movlw	0
  5348     0EDF  00CA               	movwf	UART_Init@baudrate+2
  5349     0EE0  3025               	movlw	37
  5350     0EE1  00C9               	movwf	UART_Init@baudrate+1
  5351     0EE2  3080               	movlw	128
  5352     0EE3  00C8               	movwf	UART_Init@baudrate
  5353     0EE4  118A  2729  158A   	fcall	_UART_Init
  5354     0EE7                     l2092:
  5355                           
  5356                           ;src/main_pic16f883.c: 90:     SPI_Init();
  5357     0EE7  158A  2693  158A   	fcall	_SPI_Init
  5358     0EEA                     l2094:
  5359                           
  5360                           ;src/main_pic16f883.c: 91:     GPIO_Init();
  5361     0EEA  158A  2622  158A   	fcall	_GPIO_Init
  5362     0EED                     l2096:
  5363                           
  5364                           ;src/main_pic16f883.c: 92:     Global_Interrupt();
  5365     0EED  158A  2608  158A   	fcall	_Global_Interrupt
  5366     0EF0                     l115:
  5367     0EF0  0008               	return
  5368     0EF1                     __end_of_PIC16F883_SI4463_INIT:
  5369                           
  5370                           	psect	text32
  5371     0729                     __ptext32:	
  5372 ;; *************** function _UART_Init *****************
  5373 ;; Defined at:
  5374 ;;		line 24 in file "src/main_pic16f883.c"
  5375 ;; Parameters:    Size  Location     Type
  5376 ;;  baudrate        4    6[BANK0 ] const long 
  5377 ;; Auto vars:     Size  Location     Type
  5378 ;;  x               2    9[COMMON] unsigned int 
  5379 ;; Return value:  Size  Location     Type
  5380 ;;                  1    wreg      unsigned char 
  5381 ;; Registers used:
  5382 ;;		wreg, status,2, status,0, btemp+1, pclath, cstack
  5383 ;; Tracked objects:
  5384 ;;		On entry : 0/0
  5385 ;;		On exit  : 0/0
  5386 ;;		Unchanged: 0/0
  5387 ;; Data sizes:     COMMON   BANK0   BANK1   BANK2
  5388 ;;      Params:         0       4       0       0
  5389 ;;      Locals:         2       0       0       0
  5390 ;;      Temps:          0      12       0       0
  5391 ;;      Totals:         2      16       0       0
  5392 ;;Total ram usage:       18 bytes
  5393 ;; Hardware stack levels used: 1
  5394 ;; Hardware stack levels required when called: 1
  5395 ;; This function calls:
  5396 ;;		___aldiv
  5397 ;; This function is called by:
  5398 ;;		_PIC16F883_SI4463_INIT
  5399 ;; This function uses a non-reentrant model
  5400 ;;
  5401                           
  5402     0729                     _UART_Init:	
  5403                           ;psect for function _UART_Init
  5404                           
  5405     0729                     l1922:	
  5406                           ;incstack = 0
  5407                           ; Regs used in _UART_Init: [wreg+status,2+status,0+btemp+1+pclath+cstack]
  5408                           
  5409                           
  5410                           ;src/main_pic16f883.c: 26:     unsigned int x;;src/main_pic16f883.c: 27:     x = (800000
      +                          0 - baudrate * 64) / (baudrate * 64);
  5411     0729  1283               	bcf	3,5	;RP0=0, select bank0
  5412     072A  1303               	bcf	3,6	;RP1=0, select bank0
  5413     072B  0848               	movf	UART_Init@baudrate,w
  5414     072C  00CC               	movwf	??_UART_Init
  5415     072D  0849               	movf	UART_Init@baudrate+1,w
  5416     072E  00CD               	movwf	??_UART_Init+1
  5417     072F  084A               	movf	UART_Init@baudrate+2,w
  5418     0730  00CE               	movwf	??_UART_Init+2
  5419     0731  084B               	movf	UART_Init@baudrate+3,w
  5420     0732  00CF               	movwf	??_UART_Init+3
  5421     0733  3006               	movlw	6
  5422     0734                     u965:
  5423     0734  1003               	clrc
  5424     0735  0DCC               	rlf	??_UART_Init,f
  5425     0736  0DCD               	rlf	??_UART_Init+1,f
  5426     0737  0DCE               	rlf	??_UART_Init+2,f
  5427     0738  0DCF               	rlf	??_UART_Init+3,f
  5428     0739                     u960:
  5429     0739  3EFF               	addlw	-1
  5430     073A  1D03               	skipz
  5431     073B  2F34               	goto	u965
  5432     073C  084F               	movf	??_UART_Init+3,w
  5433     073D  00F3               	movwf	___aldiv@divisor+3
  5434     073E  084E               	movf	??_UART_Init+2,w
  5435     073F  00F2               	movwf	___aldiv@divisor+2
  5436     0740  084D               	movf	??_UART_Init+1,w
  5437     0741  00F1               	movwf	___aldiv@divisor+1
  5438     0742  084C               	movf	??_UART_Init,w
  5439     0743  00F0               	movwf	___aldiv@divisor
  5440     0744  0848               	movf	UART_Init@baudrate,w
  5441     0745  00D0               	movwf	??_UART_Init+4
  5442     0746  0849               	movf	UART_Init@baudrate+1,w
  5443     0747  00D1               	movwf	??_UART_Init+5
  5444     0748  084A               	movf	UART_Init@baudrate+2,w
  5445     0749  00D2               	movwf	??_UART_Init+6
  5446     074A  084B               	movf	UART_Init@baudrate+3,w
  5447     074B  00D3               	movwf	??_UART_Init+7
  5448     074C  3006               	movlw	6
  5449     074D                     u975:
  5450     074D  1003               	clrc
  5451     074E  0DD0               	rlf	??_UART_Init+4,f
  5452     074F  0DD1               	rlf	??_UART_Init+5,f
  5453     0750  0DD2               	rlf	??_UART_Init+6,f
  5454     0751  0DD3               	rlf	??_UART_Init+7,f
  5455     0752                     u970:
  5456     0752  3EFF               	addlw	-1
  5457     0753  1D03               	skipz
  5458     0754  2F4D               	goto	u975
  5459     0755  3000               	movlw	0
  5460     0756  00D4               	movwf	??_UART_Init+8
  5461     0757  3012               	movlw	18
  5462     0758  00D5               	movwf	??_UART_Init+9
  5463     0759  307A               	movlw	122
  5464     075A  00D6               	movwf	??_UART_Init+10
  5465     075B  3000               	movlw	0
  5466     075C  00D7               	movwf	??_UART_Init+11
  5467     075D  0850               	movf	??_UART_Init+4,w
  5468     075E  02D4               	subwf	??_UART_Init+8,f
  5469     075F  0851               	movf	??_UART_Init+5,w
  5470     0760  1C03               	skipc
  5471     0761  0F51               	incfsz	??_UART_Init+5,w
  5472     0762  2F64               	goto	u981
  5473     0763  2F65               	goto	u982
  5474     0764                     u981:
  5475     0764  02D5               	subwf	??_UART_Init+9,f
  5476     0765                     u982:
  5477     0765  0852               	movf	??_UART_Init+6,w
  5478     0766  1C03               	skipc
  5479     0767  0F52               	incfsz	??_UART_Init+6,w
  5480     0768  2F6A               	goto	u983
  5481     0769  2F6B               	goto	u984
  5482     076A                     u983:
  5483     076A  02D6               	subwf	??_UART_Init+10,f
  5484     076B                     u984:
  5485     076B  0853               	movf	??_UART_Init+7,w
  5486     076C  1C03               	skipc
  5487     076D  0F53               	incfsz	??_UART_Init+7,w
  5488     076E  2F70               	goto	u985
  5489     076F  2F71               	goto	u986
  5490     0770                     u985:
  5491     0770  02D7               	subwf	??_UART_Init+11,f
  5492     0771                     u986:
  5493     0771  0857               	movf	??_UART_Init+11,w
  5494     0772  00F7               	movwf	___aldiv@dividend+3
  5495     0773  0856               	movf	??_UART_Init+10,w
  5496     0774  00F6               	movwf	___aldiv@dividend+2
  5497     0775  0855               	movf	??_UART_Init+9,w
  5498     0776  00F5               	movwf	___aldiv@dividend+1
  5499     0777  0854               	movf	??_UART_Init+8,w
  5500     0778  00F4               	movwf	___aldiv@dividend
  5501     0779  118A  261F  118A   	fcall	___aldiv
  5502     077C  0871               	movf	?___aldiv+1,w
  5503     077D  00FA               	movwf	UART_Init@x+1
  5504     077E  0870               	movf	?___aldiv,w
  5505     077F  00F9               	movwf	UART_Init@x
  5506     0780                     l1924:
  5507                           
  5508                           ;src/main_pic16f883.c: 28:     TXSTAbits.BRGH = 0;
  5509     0780  1683               	bsf	3,5	;RP0=1, select bank1
  5510     0781  1303               	bcf	3,6	;RP1=0, select bank1
  5511     0782  1118               	bcf	24,2	;volatile
  5512     0783                     l1926:
  5513                           
  5514                           ;src/main_pic16f883.c: 29:     SPBRG = x;
  5515     0783  0879               	movf	UART_Init@x,w
  5516     0784  0099               	movwf	25	;volatile
  5517     0785                     l1928:
  5518                           
  5519                           ;src/main_pic16f883.c: 30:     TXSTAbits.SYNC = 0;
  5520     0785  1218               	bcf	24,4	;volatile
  5521     0786                     l1930:
  5522                           
  5523                           ;src/main_pic16f883.c: 31:     TRISCbits.TRISC7 = 1;
  5524     0786  1787               	bsf	7,7	;volatile
  5525     0787                     l1932:
  5526                           
  5527                           ;src/main_pic16f883.c: 32:     TRISCbits.TRISC6 = 0;
  5528     0787  1307               	bcf	7,6	;volatile
  5529     0788                     l1934:
  5530                           
  5531                           ;src/main_pic16f883.c: 33:     TXSTAbits.TX9 = 0;
  5532     0788  1318               	bcf	24,6	;volatile
  5533     0789                     l1936:
  5534                           
  5535                           ;src/main_pic16f883.c: 34:     RCSTAbits.CREN = 1;
  5536     0789  1283               	bcf	3,5	;RP0=0, select bank0
  5537     078A  1303               	bcf	3,6	;RP1=0, select bank0
  5538     078B  1618               	bsf	24,4	;volatile
  5539     078C                     l1938:
  5540                           
  5541                           ;src/main_pic16f883.c: 35:     RCSTAbits.SPEN = 1;
  5542     078C  1798               	bsf	24,7	;volatile
  5543     078D                     l1940:
  5544                           
  5545                           ;src/main_pic16f883.c: 36:     TXSTAbits.TXEN = 1;
  5546     078D  1683               	bsf	3,5	;RP0=1, select bank1
  5547     078E  1303               	bcf	3,6	;RP1=0, select bank1
  5548     078F  1698               	bsf	24,5	;volatile
  5549     0790                     l1942:
  5550                           
  5551                           ;src/main_pic16f883.c: 38:     PIE1bits.RCIE = 1;
  5552     0790  168C               	bsf	12,5	;volatile
  5553     0791                     l103:
  5554     0791  0008               	return
  5555     0792                     __end_of_UART_Init:
  5556                           
  5557                           	psect	text33
  5558     061F                     __ptext33:	
  5559 ;; *************** function ___aldiv *****************
  5560 ;; Defined at:
  5561 ;;		line 5 in file "C:\Program Files\Microchip\xc8\v2.41\pic\sources\c90\common\aldiv.c"
  5562 ;; Parameters:    Size  Location     Type
  5563 ;;  divisor         4    0[COMMON] long 
  5564 ;;  dividend        4    4[COMMON] long 
  5565 ;; Auto vars:     Size  Location     Type
  5566 ;;  quotient        4    2[BANK0 ] long 
  5567 ;;  sign            1    1[BANK0 ] unsigned char 
  5568 ;;  counter         1    0[BANK0 ] unsigned char 
  5569 ;; Return value:  Size  Location     Type
  5570 ;;                  4    0[COMMON] long 
  5571 ;; Registers used:
  5572 ;;		wreg, status,2, status,0, btemp+1
  5573 ;; Tracked objects:
  5574 ;;		On entry : 0/0
  5575 ;;		On exit  : 0/0
  5576 ;;		Unchanged: 0/0
  5577 ;; Data sizes:     COMMON   BANK0   BANK1   BANK2
  5578 ;;      Params:         8       0       0       0
  5579 ;;      Locals:         0       6       0       0
  5580 ;;      Temps:          1       0       0       0
  5581 ;;      Totals:         9       6       0       0
  5582 ;;Total ram usage:       15 bytes
  5583 ;; Hardware stack levels used: 1
  5584 ;; This function calls:
  5585 ;;		Nothing
  5586 ;; This function is called by:
  5587 ;;		_UART_Init
  5588 ;; This function uses a non-reentrant model
  5589 ;;
  5590                           
  5591     061F                     ___aldiv:	
  5592                           ;psect for function ___aldiv
  5593                           
  5594     061F                     l1878:	
  5595                           ;incstack = 0
  5596                           ; Regs used in ___aldiv: [wreg+status,2+status,0+btemp+1]
  5597                           
  5598     061F  1283               	bcf	3,5	;RP0=0, select bank0
  5599     0620  1303               	bcf	3,6	;RP1=0, select bank0
  5600     0621  01C3               	clrf	___aldiv@sign
  5601     0622                     l1880:
  5602     0622  1FF3               	btfss	___aldiv@divisor+3,7
  5603     0623  2E25               	goto	u861
  5604     0624  2E26               	goto	u860
  5605     0625                     u861:
  5606     0625  2E33               	goto	l561
  5607     0626                     u860:
  5608     0626                     l1882:
  5609     0626  09F0               	comf	___aldiv@divisor,f
  5610     0627  09F1               	comf	___aldiv@divisor+1,f
  5611     0628  09F2               	comf	___aldiv@divisor+2,f
  5612     0629  09F3               	comf	___aldiv@divisor+3,f
  5613     062A  0AF0               	incf	___aldiv@divisor,f
  5614     062B  1903               	skipnz
  5615     062C  0AF1               	incf	___aldiv@divisor+1,f
  5616     062D  1903               	skipnz
  5617     062E  0AF2               	incf	___aldiv@divisor+2,f
  5618     062F  1903               	skipnz
  5619     0630  0AF3               	incf	___aldiv@divisor+3,f
  5620     0631  01C3               	clrf	___aldiv@sign
  5621     0632  0AC3               	incf	___aldiv@sign,f
  5622     0633                     l561:
  5623     0633  1FF7               	btfss	___aldiv@dividend+3,7
  5624     0634  2E36               	goto	u871
  5625     0635  2E37               	goto	u870
  5626     0636                     u871:
  5627     0636  2E46               	goto	l1888
  5628     0637                     u870:
  5629     0637                     l1884:
  5630     0637  09F4               	comf	___aldiv@dividend,f
  5631     0638  09F5               	comf	___aldiv@dividend+1,f
  5632     0639  09F6               	comf	___aldiv@dividend+2,f
  5633     063A  09F7               	comf	___aldiv@dividend+3,f
  5634     063B  0AF4               	incf	___aldiv@dividend,f
  5635     063C  1903               	skipnz
  5636     063D  0AF5               	incf	___aldiv@dividend+1,f
  5637     063E  1903               	skipnz
  5638     063F  0AF6               	incf	___aldiv@dividend+2,f
  5639     0640  1903               	skipnz
  5640     0641  0AF7               	incf	___aldiv@dividend+3,f
  5641     0642                     l1886:
  5642     0642  3001               	movlw	1
  5643     0643  00FF               	movwf	btemp+1
  5644     0644  087F               	movf	btemp+1,w
  5645     0645  06C3               	xorwf	___aldiv@sign,f
  5646     0646                     l1888:
  5647     0646  3000               	movlw	0
  5648     0647  00C7               	movwf	___aldiv@quotient+3
  5649     0648  3000               	movlw	0
  5650     0649  00C6               	movwf	___aldiv@quotient+2
  5651     064A  3000               	movlw	0
  5652     064B  00C5               	movwf	___aldiv@quotient+1
  5653     064C  3000               	movlw	0
  5654     064D  00C4               	movwf	___aldiv@quotient
  5655     064E                     l1890:
  5656     064E  0873               	movf	___aldiv@divisor+3,w
  5657     064F  0472               	iorwf	___aldiv@divisor+2,w
  5658     0650  0471               	iorwf	___aldiv@divisor+1,w
  5659     0651  0470               	iorwf	___aldiv@divisor,w
  5660     0652  1903               	skipnz
  5661     0653  2E55               	goto	u881
  5662     0654  2E56               	goto	u880
  5663     0655                     u881:
  5664     0655  2EA3               	goto	l1912
  5665     0656                     u880:
  5666     0656                     l1892:
  5667     0656  01C2               	clrf	___aldiv@counter
  5668     0657  0AC2               	incf	___aldiv@counter,f
  5669     0658  2E66               	goto	l1898
  5670     0659                     l1894:
  5671     0659  3001               	movlw	1
  5672     065A  00F8               	movwf	??___aldiv
  5673     065B                     u895:
  5674     065B  1003               	clrc
  5675     065C  0DF0               	rlf	___aldiv@divisor,f
  5676     065D  0DF1               	rlf	___aldiv@divisor+1,f
  5677     065E  0DF2               	rlf	___aldiv@divisor+2,f
  5678     065F  0DF3               	rlf	___aldiv@divisor+3,f
  5679     0660  0BF8               	decfsz	??___aldiv,f
  5680     0661  2E5B               	goto	u895
  5681     0662                     l1896:
  5682     0662  3001               	movlw	1
  5683     0663  00FF               	movwf	btemp+1
  5684     0664  087F               	movf	btemp+1,w
  5685     0665  07C2               	addwf	___aldiv@counter,f
  5686     0666                     l1898:
  5687     0666  1FF3               	btfss	___aldiv@divisor+3,7
  5688     0667  2E69               	goto	u901
  5689     0668  2E6A               	goto	u900
  5690     0669                     u901:
  5691     0669  2E59               	goto	l1894
  5692     066A                     u900:
  5693     066A                     l1900:
  5694     066A  3001               	movlw	1
  5695     066B  00F8               	movwf	??___aldiv
  5696     066C                     u915:
  5697     066C  1003               	clrc
  5698     066D  0DC4               	rlf	___aldiv@quotient,f
  5699     066E  0DC5               	rlf	___aldiv@quotient+1,f
  5700     066F  0DC6               	rlf	___aldiv@quotient+2,f
  5701     0670  0DC7               	rlf	___aldiv@quotient+3,f
  5702     0671  0BF8               	decfsz	??___aldiv,f
  5703     0672  2E6C               	goto	u915
  5704     0673                     l1902:
  5705     0673  0873               	movf	___aldiv@divisor+3,w
  5706     0674  0277               	subwf	___aldiv@dividend+3,w
  5707     0675  1D03               	skipz
  5708     0676  2E81               	goto	u925
  5709     0677  0872               	movf	___aldiv@divisor+2,w
  5710     0678  0276               	subwf	___aldiv@dividend+2,w
  5711     0679  1D03               	skipz
  5712     067A  2E81               	goto	u925
  5713     067B  0871               	movf	___aldiv@divisor+1,w
  5714     067C  0275               	subwf	___aldiv@dividend+1,w
  5715     067D  1D03               	skipz
  5716     067E  2E81               	goto	u925
  5717     067F  0870               	movf	___aldiv@divisor,w
  5718     0680  0274               	subwf	___aldiv@dividend,w
  5719     0681                     u925:
  5720     0681  1C03               	skipc
  5721     0682  2E84               	goto	u921
  5722     0683  2E85               	goto	u920
  5723     0684                     u921:
  5724     0684  2E94               	goto	l1908
  5725     0685                     u920:
  5726     0685                     l1904:
  5727     0685  0870               	movf	___aldiv@divisor,w
  5728     0686  02F4               	subwf	___aldiv@dividend,f
  5729     0687  0871               	movf	___aldiv@divisor+1,w
  5730     0688  1C03               	skipc
  5731     0689  0F71               	incfsz	___aldiv@divisor+1,w
  5732     068A  02F5               	subwf	___aldiv@dividend+1,f
  5733     068B  0872               	movf	___aldiv@divisor+2,w
  5734     068C  1C03               	skipc
  5735     068D  0F72               	incfsz	___aldiv@divisor+2,w
  5736     068E  02F6               	subwf	___aldiv@dividend+2,f
  5737     068F  0873               	movf	___aldiv@divisor+3,w
  5738     0690  1C03               	skipc
  5739     0691  0F73               	incfsz	___aldiv@divisor+3,w
  5740     0692  02F7               	subwf	___aldiv@dividend+3,f
  5741     0693                     l1906:
  5742     0693  1444               	bsf	___aldiv@quotient,0
  5743     0694                     l1908:
  5744     0694  3001               	movlw	1
  5745     0695                     u935:
  5746     0695  1003               	clrc
  5747     0696  0CF3               	rrf	___aldiv@divisor+3,f
  5748     0697  0CF2               	rrf	___aldiv@divisor+2,f
  5749     0698  0CF1               	rrf	___aldiv@divisor+1,f
  5750     0699  0CF0               	rrf	___aldiv@divisor,f
  5751     069A  3EFF               	addlw	-1
  5752     069B  1D03               	skipz
  5753     069C  2E95               	goto	u935
  5754     069D                     l1910:
  5755     069D  3001               	movlw	1
  5756     069E  02C2               	subwf	___aldiv@counter,f
  5757     069F  1D03               	btfss	3,2
  5758     06A0  2EA2               	goto	u941
  5759     06A1  2EA3               	goto	u940
  5760     06A2                     u941:
  5761     06A2  2E6A               	goto	l1900
  5762     06A3                     u940:
  5763     06A3                     l1912:
  5764     06A3  0843               	movf	___aldiv@sign,w
  5765     06A4  1903               	btfsc	3,2
  5766     06A5  2EA7               	goto	u951
  5767     06A6  2EA8               	goto	u950
  5768     06A7                     u951:
  5769     06A7  2EB3               	goto	l1916
  5770     06A8                     u950:
  5771     06A8                     l1914:
  5772     06A8  09C4               	comf	___aldiv@quotient,f
  5773     06A9  09C5               	comf	___aldiv@quotient+1,f
  5774     06AA  09C6               	comf	___aldiv@quotient+2,f
  5775     06AB  09C7               	comf	___aldiv@quotient+3,f
  5776     06AC  0AC4               	incf	___aldiv@quotient,f
  5777     06AD  1903               	skipnz
  5778     06AE  0AC5               	incf	___aldiv@quotient+1,f
  5779     06AF  1903               	skipnz
  5780     06B0  0AC6               	incf	___aldiv@quotient+2,f
  5781     06B1  1903               	skipnz
  5782     06B2  0AC7               	incf	___aldiv@quotient+3,f
  5783     06B3                     l1916:
  5784     06B3  0847               	movf	___aldiv@quotient+3,w
  5785     06B4  00F3               	movwf	?___aldiv+3
  5786     06B5  0846               	movf	___aldiv@quotient+2,w
  5787     06B6  00F2               	movwf	?___aldiv+2
  5788     06B7  0845               	movf	___aldiv@quotient+1,w
  5789     06B8  00F1               	movwf	?___aldiv+1
  5790     06B9  0844               	movf	___aldiv@quotient,w
  5791     06BA  00F0               	movwf	?___aldiv
  5792     06BB                     l571:
  5793     06BB  0008               	return
  5794     06BC                     __end_of___aldiv:
  5795                           
  5796                           	psect	text34
  5797     0E27                     __ptext34:	
  5798 ;; *************** function _Systick_Init *****************
  5799 ;; Defined at:
  5800 ;;		line 18 in file "src/main_pic16f883.c"
  5801 ;; Parameters:    Size  Location     Type
  5802 ;;		None
  5803 ;; Auto vars:     Size  Location     Type
  5804 ;;		None
  5805 ;; Return value:  Size  Location     Type
  5806 ;;                  1    wreg      void 
  5807 ;; Registers used:
  5808 ;;		wreg
  5809 ;; Tracked objects:
  5810 ;;		On entry : 0/0
  5811 ;;		On exit  : 0/0
  5812 ;;		Unchanged: 0/0
  5813 ;; Data sizes:     COMMON   BANK0   BANK1   BANK2
  5814 ;;      Params:         0       0       0       0
  5815 ;;      Locals:         0       0       0       0
  5816 ;;      Temps:          0       0       0       0
  5817 ;;      Totals:         0       0       0       0
  5818 ;;Total ram usage:        0 bytes
  5819 ;; Hardware stack levels used: 1
  5820 ;; This function calls:
  5821 ;;		Nothing
  5822 ;; This function is called by:
  5823 ;;		_PIC16F883_SI4463_INIT
  5824 ;; This function uses a non-reentrant model
  5825 ;;
  5826                           
  5827     0E27                     _Systick_Init:	
  5828                           ;psect for function _Systick_Init
  5829                           
  5830     0E27                     l1920:	
  5831                           ;incstack = 0
  5832                           ; Regs used in _Systick_Init: [wreg]
  5833                           
  5834                           
  5835                           ;src/main_pic16f883.c: 19:     OSCCON = 0b01110101;
  5836     0E27  3075               	movlw	117
  5837     0E28  1683               	bsf	3,5	;RP0=1, select bank1
  5838     0E29  1303               	bcf	3,6	;RP1=0, select bank1
  5839     0E2A  008F               	movwf	15	;volatile
  5840     0E2B                     l100:
  5841     0E2B  0008               	return
  5842     0E2C                     __end_of_Systick_Init:
  5843                           
  5844                           	psect	text35
  5845     0E93                     __ptext35:	
  5846 ;; *************** function _SPI_Init *****************
  5847 ;; Defined at:
  5848 ;;		line 44 in file "src/main_pic16f883.c"
  5849 ;; Parameters:    Size  Location     Type
  5850 ;;		None
  5851 ;; Auto vars:     Size  Location     Type
  5852 ;;		None
  5853 ;; Return value:  Size  Location     Type
  5854 ;;                  1    wreg      void 
  5855 ;; Registers used:
  5856 ;;		wreg, status,2, status,0
  5857 ;; Tracked objects:
  5858 ;;		On entry : 0/0
  5859 ;;		On exit  : 0/0
  5860 ;;		Unchanged: 0/0
  5861 ;; Data sizes:     COMMON   BANK0   BANK1   BANK2
  5862 ;;      Params:         0       0       0       0
  5863 ;;      Locals:         0       0       0       0
  5864 ;;      Temps:          0       0       0       0
  5865 ;;      Totals:         0       0       0       0
  5866 ;;Total ram usage:        0 bytes
  5867 ;; Hardware stack levels used: 1
  5868 ;; This function calls:
  5869 ;;		Nothing
  5870 ;; This function is called by:
  5871 ;;		_PIC16F883_SI4463_INIT
  5872 ;; This function uses a non-reentrant model
  5873 ;;
  5874                           
  5875     0E93                     _SPI_Init:	
  5876                           ;psect for function _SPI_Init
  5877                           
  5878     0E93                     l1944:	
  5879                           ;incstack = 0
  5880                           ; Regs used in _SPI_Init: [wreg+status,2+status,0]
  5881                           
  5882                           
  5883                           ;src/main_pic16f883.c: 45:     TRISCbits.TRISC3 = 0x00;
  5884     0E93  1683               	bsf	3,5	;RP0=1, select bank1
  5885     0E94  1303               	bcf	3,6	;RP1=0, select bank1
  5886     0E95  1187               	bcf	7,3	;volatile
  5887                           
  5888                           ;src/main_pic16f883.c: 46:     TRISCbits.TRISC5 = 0x00;
  5889     0E96  1287               	bcf	7,5	;volatile
  5890                           
  5891                           ;src/main_pic16f883.c: 47:     TRISCbits.TRISC4 = 0x01;
  5892     0E97  1607               	bsf	7,4	;volatile
  5893                           
  5894                           ;src/main_pic16f883.c: 48:     TRISAbits.TRISA5 = 0x00;
  5895     0E98  1285               	bcf	5,5	;volatile
  5896     0E99                     l1946:
  5897                           
  5898                           ;src/main_pic16f883.c: 51:     SSPCONbits.SSPM = 0b0010;
  5899     0E99  1283               	bcf	3,5	;RP0=0, select bank0
  5900     0E9A  1303               	bcf	3,6	;RP1=0, select bank0
  5901     0E9B  0814               	movf	20,w	;volatile
  5902     0E9C  39F0               	andlw	-16
  5903     0E9D  3802               	iorlw	2
  5904     0E9E  0094               	movwf	20	;volatile
  5905     0E9F                     l1948:
  5906                           
  5907                           ;src/main_pic16f883.c: 52:     SSPCONbits.SSPEN = 1;
  5908     0E9F  1694               	bsf	20,5	;volatile
  5909     0EA0                     l1950:
  5910                           
  5911                           ;src/main_pic16f883.c: 56:     SSPSTATbits.SMP = 0;
  5912     0EA0  1683               	bsf	3,5	;RP0=1, select bank1
  5913     0EA1  1303               	bcf	3,6	;RP1=0, select bank1
  5914     0EA2  1394               	bcf	20,7	;volatile
  5915     0EA3                     l1952:
  5916                           
  5917                           ;src/main_pic16f883.c: 57:     SSPSTATbits.CKE = 1;
  5918     0EA3  1714               	bsf	20,6	;volatile
  5919     0EA4                     l1954:
  5920                           
  5921                           ;src/main_pic16f883.c: 58:     SSPCONbits.CKP = 0;
  5922     0EA4  1283               	bcf	3,5	;RP0=0, select bank0
  5923     0EA5  1303               	bcf	3,6	;RP1=0, select bank0
  5924     0EA6  1214               	bcf	20,4	;volatile
  5925     0EA7                     l1956:
  5926                           
  5927                           ;src/main_pic16f883.c: 61:     RA5 = 1;
  5928     0EA7  1685               	bsf	5,5	;volatile
  5929     0EA8                     l106:
  5930     0EA8  0008               	return
  5931     0EA9                     __end_of_SPI_Init:
  5932                           
  5933                           	psect	text36
  5934     0E08                     __ptext36:	
  5935 ;; *************** function _Global_Interrupt *****************
  5936 ;; Defined at:
  5937 ;;		line 78 in file "src/main_pic16f883.c"
  5938 ;; Parameters:    Size  Location     Type
  5939 ;;		None
  5940 ;; Auto vars:     Size  Location     Type
  5941 ;;		None
  5942 ;; Return value:  Size  Location     Type
  5943 ;;                  1    wreg      void 
  5944 ;; Registers used:
  5945 ;;		None
  5946 ;; Tracked objects:
  5947 ;;		On entry : 0/0
  5948 ;;		On exit  : 0/0
  5949 ;;		Unchanged: 0/0
  5950 ;; Data sizes:     COMMON   BANK0   BANK1   BANK2
  5951 ;;      Params:         0       0       0       0
  5952 ;;      Locals:         0       0       0       0
  5953 ;;      Temps:          0       0       0       0
  5954 ;;      Totals:         0       0       0       0
  5955 ;;Total ram usage:        0 bytes
  5956 ;; Hardware stack levels used: 1
  5957 ;; This function calls:
  5958 ;;		Nothing
  5959 ;; This function is called by:
  5960 ;;		_PIC16F883_SI4463_INIT
  5961 ;; This function uses a non-reentrant model
  5962 ;;
  5963                           
  5964     0E08                     _Global_Interrupt:	
  5965                           ;psect for function _Global_Interrupt
  5966                           
  5967     0E08                     l1960:	
  5968                           ;incstack = 0
  5969                           ; Regs used in _Global_Interrupt: []
  5970                           
  5971                           
  5972                           ;src/main_pic16f883.c: 80:     INTCONbits.PEIE = 1;
  5973     0E08  170B               	bsf	11,6	;volatile
  5974                           
  5975                           ;src/main_pic16f883.c: 81:     INTCONbits.GIE = 1;
  5976     0E09  178B               	bsf	11,7	;volatile
  5977     0E0A                     l112:
  5978     0E0A  0008               	return
  5979     0E0B                     __end_of_Global_Interrupt:
  5980                           
  5981                           	psect	text37
  5982     0E22                     __ptext37:	
  5983 ;; *************** function _GPIO_Init *****************
  5984 ;; Defined at:
  5985 ;;		line 66 in file "src/main_pic16f883.c"
  5986 ;; Parameters:    Size  Location     Type
  5987 ;;		None
  5988 ;; Auto vars:     Size  Location     Type
  5989 ;;		None
  5990 ;; Return value:  Size  Location     Type
  5991 ;;                  1    wreg      void 
  5992 ;; Registers used:
  5993 ;;		None
  5994 ;; Tracked objects:
  5995 ;;		On entry : 0/0
  5996 ;;		On exit  : 0/0
  5997 ;;		Unchanged: 0/0
  5998 ;; Data sizes:     COMMON   BANK0   BANK1   BANK2
  5999 ;;      Params:         0       0       0       0
  6000 ;;      Locals:         0       0       0       0
  6001 ;;      Temps:          0       0       0       0
  6002 ;;      Totals:         0       0       0       0
  6003 ;;Total ram usage:        0 bytes
  6004 ;; Hardware stack levels used: 1
  6005 ;; This function calls:
  6006 ;;		Nothing
  6007 ;; This function is called by:
  6008 ;;		_PIC16F883_SI4463_INIT
  6009 ;; This function uses a non-reentrant model
  6010 ;;
  6011                           
  6012     0E22                     _GPIO_Init:	
  6013                           ;psect for function _GPIO_Init
  6014                           
  6015     0E22                     l1958:	
  6016                           ;incstack = 0
  6017                           ; Regs used in _GPIO_Init: []
  6018                           
  6019                           
  6020                           ;src/main_pic16f883.c: 71:     TRISBbits.TRISB1 = 0;
  6021     0E22  1683               	bsf	3,5	;RP0=1, select bank1
  6022     0E23  1303               	bcf	3,6	;RP1=0, select bank1
  6023     0E24  1086               	bcf	6,1	;volatile
  6024                           
  6025                           ;src/main_pic16f883.c: 73:     TRISBbits.TRISB0 = 1;
  6026     0E25  1406               	bsf	6,0	;volatile
  6027     0E26                     l109:
  6028     0E26  0008               	return
  6029     0E27                     __end_of_GPIO_Init:
  6030     007E                     btemp	set	126	;btemp
  6031     007E                     wtemp0	set	126
  6032                           
  6033                           	psect	idloc
  6034                           
  6035                           ;Config register IDLOC0 @ 0x2000
  6036                           ;	unspecified, using default values
  6037     2000                     	org	8192
  6038     2000  3FFF               	dw	16383
  6039                           
  6040                           ;Config register IDLOC1 @ 0x2001
  6041                           ;	unspecified, using default values
  6042     2001                     	org	8193
  6043     2001  3FFF               	dw	16383
  6044                           
  6045                           ;Config register IDLOC2 @ 0x2002
  6046                           ;	unspecified, using default values
  6047     2002                     	org	8194
  6048     2002  3FFF               	dw	16383
  6049                           
  6050                           ;Config register IDLOC3 @ 0x2003
  6051                           ;	unspecified, using default values
  6052     2003                     	org	8195
  6053     2003  3FFF               	dw	16383
  6054                           
  6055                           	psect	config
  6056                           
  6057                           ;Config register CONFIG1 @ 0x2007
  6058                           ;	Oscillator Selection bits
  6059                           ;	FOSC = INTRC_CLKOUT, INTOSC oscillator: CLKOUT function on RA6/OSC2/CLKOUT pin, I/O fu
      +                          nction on RA7/OSC1/CLKIN
  6060                           ;	Watchdog Timer Enable bit
  6061                           ;	WDTE = OFF, WDT disabled and can be enabled by SWDTEN bit of the WDTCON register
  6062                           ;	Power-up Timer Enable bit
  6063                           ;	PWRTE = OFF, PWRT disabled
  6064                           ;	RE3/MCLR pin function select bit
  6065                           ;	MCLRE = ON, RE3/MCLR pin function is MCLR
  6066                           ;	Code Protection bit
  6067                           ;	CP = OFF, Program memory code protection is disabled
  6068                           ;	Data Code Protection bit
  6069                           ;	CPD = OFF, Data memory code protection is disabled
  6070                           ;	Brown Out Reset Selection bits
  6071                           ;	BOREN = ON, BOR enabled
  6072                           ;	Internal External Switchover bit
  6073                           ;	IESO = ON, Internal/External Switchover mode is enabled
  6074                           ;	Fail-Safe Clock Monitor Enabled bit
  6075                           ;	FCMEN = ON, Fail-Safe Clock Monitor is enabled
  6076                           ;	Low Voltage Programming Enable bit
  6077                           ;	LVP = OFF, RB3 pin has digital I/O, HV on MCLR must be used for programming
  6078                           ;	In-Circuit Debugger Mode bit
  6079                           ;	DEBUG = 0x1, unprogrammed default
  6080     2007                     	org	8199
  6081     2007  2FF5               	dw	12277
  6082                           
  6083                           ;Config register CONFIG2 @ 0x2008
  6084                           ;	Brown-out Reset Selection bit
  6085                           ;	BOR4V = BOR21V, Brown-out Reset set to 2.1V
  6086                           ;	Flash Program Memory Self Write Enable bits
  6087                           ;	WRT = OFF, Write protection off
  6088     2008                     	org	8200
  6089     2008  3EFF               	dw	16127

Data Sizes:
    Strings     20
    Constant    1051
    Data        3
    BSS         162
    Persistent  0
    Stack       0

Auto Spaces:
    Space          Size  Autos    Used
    COMMON           14     14      14
    BANK0            80     25      62
    BANK1            80      0      64
    BANK2            80      0      64

Pointer List with Targets:

    sprintf@f	PTR const unsigned char  size(2) Largest target is 20
		 -> STR_1(CODE[20]), 

    sprintf@sp	PTR unsigned char  size(1) Largest target is 64
		 -> customRadioPacket(BANK1[64]), 

    sprintf@ap	PTR void [1] size(1) Largest target is 2
		 -> ?_sprintf(BANK0[2]), 

    si446x_write_tx_fifo@pTxData	PTR unsigned char  size(1) Largest target is 64
		 -> customRadioPacket(BANK1[64]), 

    si446x_configuration_init@pSetPropCmd	PTR const unsigned char  size(2) Largest target is 970
		 -> Radio_Configuration_Data_Array(CODE[970]), 

    radio_hal_SpiReadData@pData	PTR unsigned char  size(1) Largest target is 64
		 -> Pro2Cmd(BANK0[16]), NULL(NULL[0]), customRadioPacket(BANK1[64]), 

    radio_hal_SpiWriteData@pData	PTR unsigned char  size(1) Largest target is 64
		 -> Pro2Cmd(BANK0[16]), customRadioPacket(BANK1[64]), 

    radio_comm_SendCmdGetResp@pRespData	PTR unsigned char  size(1) Largest target is 16
		 -> Pro2Cmd(BANK0[16]), NULL(NULL[0]), 

    radio_comm_SendCmdGetResp@pCmdData	PTR unsigned char  size(1) Largest target is 16
		 -> Pro2Cmd(BANK0[16]), 

    radio_comm_WriteData@pData	PTR unsigned char  size(1) Largest target is 64
		 -> customRadioPacket(BANK1[64]), 

    radio_comm_SendCmd@pData	PTR unsigned char  size(1) Largest target is 16
		 -> Pro2Cmd(BANK0[16]), 

    radio_comm_GetResp@pData	PTR unsigned char  size(1) Largest target is 16
		 -> Pro2Cmd(BANK0[16]), NULL(NULL[0]), 

    vRadio_StartTx_Variable_Packet@pioRadioPacket	PTR unsigned char  size(1) Largest target is 64
		 -> customRadioPacket(BANK1[64]), 

    pRadioConfiguration.Radio_ConfigurationArray	PTR const unsigned char  size(2) Largest target is 970
		 -> Radio_Configuration_Data_Array(CODE[970]), 

    pRadioConfiguration	PTR const struct . size(2) Largest target is 71
		 -> RadioConfiguration(CODE[71]), 

    S521$Radio_ConfigurationArray	PTR const unsigned char  size(2) Largest target is 970
		 -> Radio_Configuration_Data_Array(CODE[970]), 

    RadioConfiguration.Radio_ConfigurationArray	PTR const unsigned char  size(2) Largest target is 970
		 -> Radio_Configuration_Data_Array(CODE[970]), 


Critical Paths under _main in COMMON

    _vRadio_StartTx_Variable_Packet->_si446x_write_tx_fifo
    _si446x_write_tx_fifo->_radio_comm_WriteData
    _si446x_start_tx->_radio_comm_SendCmd
    _si446x_change_state->_radio_comm_SendCmd
    _vRadio_PowerUp->_si446x_reset
    _radio_comm_SendCmdGetResp->_radio_comm_SendCmd
    _radio_hal_SpiWriteData->_SPI_Write
    _radio_comm_PollCTS->_radio_comm_GetResp
    _radio_comm_GetResp->_radio_hal_SpiReadData
    _radio_hal_SpiWriteByte->_SPI_Write
    _radio_hal_SpiReadData->_SPI_Read
    _radio_hal_SpiReadByte->_SPI_Read
    _sprintf->___lwmod
    ___lwmod->___lwdiv
    _PIC16F883_SI4463_INIT->_UART_Init
    _UART_Init->___aldiv

Critical Paths under _main in BANK0

    _vRadio_StartTx_Variable_Packet->_si446x_get_int_status
    _si446x_write_tx_fifo->_radio_comm_WriteData
    _si446x_fifo_info->_radio_comm_SendCmdGetResp
    _vRadio_Init->_si446x_configuration_init
    _si446x_configuration_init->_si446x_get_int_status
    _si446x_get_int_status->_radio_comm_SendCmdGetResp
    _PIC16F883_SI4463_INIT->_UART_Init
    _UART_Init->___aldiv

Critical Paths under _main in BANK1

    None.

Critical Paths under _main in BANK2

    None.

Call Graph Tables:

 ---------------------------------------------------------------------------------
 (Depth) Function   	        Calls       Base Space   Used Autos Params    Refs
 ---------------------------------------------------------------------------------
 (0) _main                                                 3     3      0   35856
                                             22 BANK0      3     3      0
              _PIC16F883_SI4463_INIT
                            _sprintf
                        _vRadio_Init
     _vRadio_StartTx_Variable_Packet
 ---------------------------------------------------------------------------------
 (1) _vRadio_StartTx_Variable_Packet                       5     3      2   16890
                                              7 BANK0      5     3      2
                _si446x_change_state
                   _si446x_fifo_info
              _si446x_get_int_status
                    _si446x_start_tx
               _si446x_write_tx_fifo
 ---------------------------------------------------------------------------------
 (2) _si446x_write_tx_fifo                                 2     1      1    1823
                                             13 COMMON     1     1      0
                                              3 BANK0      1     0      1
               _radio_comm_WriteData
 ---------------------------------------------------------------------------------
 (3) _radio_comm_WriteData                                 4     1      3    1671
                                             12 COMMON     1     1      0
                                              0 BANK0      3     0      3
                 _radio_comm_PollCTS
                _radio_hal_ClearNsel
                  _radio_hal_SetNsel
             _radio_hal_SpiWriteByte
             _radio_hal_SpiWriteData
 ---------------------------------------------------------------------------------
 (2) _si446x_start_tx                                      4     1      3    2211
                                              0 BANK0      4     1      3
                 _radio_comm_SendCmd
 ---------------------------------------------------------------------------------
 (2) _si446x_fifo_info                                     1     1      0    4826
                                              4 BANK0      1     1      0
          _radio_comm_SendCmdGetResp
 ---------------------------------------------------------------------------------
 (2) _si446x_change_state                                  1     1      0    1938
                                              0 BANK0      1     1      0
                 _radio_comm_SendCmd
 ---------------------------------------------------------------------------------
 (1) _vRadio_Init                                          4     4      0   16874
                                             11 BANK0      4     4      0
          _si446x_configuration_init
              _si446x_get_int_status
                     _vRadio_PowerUp
 ---------------------------------------------------------------------------------
 (2) _vRadio_PowerUp                                       4     4      0     116
                                              1 COMMON     4     4      0
                       _si446x_reset
 ---------------------------------------------------------------------------------
 (3) _si446x_reset                                         1     1      0      92
                                              0 COMMON     1     1      0
                _radio_comm_ClearCTS
           _radio_hal_AssertShutdown
         _radio_hal_DeassertShutdown
 ---------------------------------------------------------------------------------
 (4) _radio_hal_DeassertShutdown                           0     0      0       0
 ---------------------------------------------------------------------------------
 (4) _radio_hal_AssertShutdown                             0     0      0       0
 ---------------------------------------------------------------------------------
 (4) _radio_comm_ClearCTS                                  0     0      0       0
 ---------------------------------------------------------------------------------
 (2) _si446x_configuration_init                            5     3      2   10936
                                              7 BANK0      4     2      2
          _radio_comm_SendCmdGetResp
                _radio_hal_NirqLevel
              _si446x_get_int_status
 ---------------------------------------------------------------------------------
 (2) _si446x_get_int_status                                3     1      2    5788
                                              4 BANK0      3     1      2
          _radio_comm_SendCmdGetResp
 ---------------------------------------------------------------------------------
 (3) _radio_comm_SendCmdGetResp                            4     1      3    4795
                                              0 BANK0      4     1      3
                 _radio_comm_GetResp
                 _radio_comm_SendCmd
 ---------------------------------------------------------------------------------
 (3) _radio_comm_SendCmd                                   2     1      1    1907
                                             12 COMMON     2     1      1
                 _radio_comm_PollCTS
                _radio_hal_ClearNsel
                  _radio_hal_SetNsel
             _radio_hal_SpiWriteData
 ---------------------------------------------------------------------------------
 (4) _radio_hal_SpiWriteData                               6     5      1     341
                                              1 COMMON     6     5      1
                          _SPI_Write
 ---------------------------------------------------------------------------------
 (4) _radio_comm_PollCTS                                   0     0      0     874
                 _radio_comm_GetResp
 ---------------------------------------------------------------------------------
 (5) _radio_comm_GetResp                                   5     4      1     874
                                              7 COMMON     5     4      1
                _radio_hal_ClearNsel
                  _radio_hal_SetNsel
              _radio_hal_SpiReadByte
              _radio_hal_SpiReadData
             _radio_hal_SpiWriteByte
 ---------------------------------------------------------------------------------
 (4) _radio_hal_SpiWriteByte                               1     1      0      62
                                              1 COMMON     1     1      0
                          _SPI_Write
 ---------------------------------------------------------------------------------
 (5) _SPI_Write                                            1     1      0      31
                                              0 COMMON     1     1      0
 ---------------------------------------------------------------------------------
 (6) _radio_hal_SpiReadData                                6     5      1     341
                                              1 COMMON     6     5      1
                           _SPI_Read
 ---------------------------------------------------------------------------------
 (6) _radio_hal_SpiReadByte                                0     0      0      31
                           _SPI_Read
 ---------------------------------------------------------------------------------
 (7) _SPI_Read                                             1     1      0      31
                                              0 COMMON     1     1      0
 ---------------------------------------------------------------------------------
 (4) _radio_hal_SetNsel                                    0     0      0       0
 ---------------------------------------------------------------------------------
 (4) _radio_hal_ClearNsel                                  0     0      0       0
 ---------------------------------------------------------------------------------
 (3) _radio_hal_NirqLevel                                  0     0      0       0
 ---------------------------------------------------------------------------------
 (1) _sprintf                                             23    19      4    1497
                                              0 BANK0     15    11      4
                            ___lwdiv
                            ___lwmod
 ---------------------------------------------------------------------------------
 (2) ___lwmod                                              5     1      4     311
                                              7 COMMON     5     1      4
                            ___lwdiv (ARG)
 ---------------------------------------------------------------------------------
 (2) ___lwdiv                                              7     3      4     314
                                              0 COMMON     7     3      4
 ---------------------------------------------------------------------------------
 (1) _PIC16F883_SI4463_INIT                                0     0      0     595
                          _GPIO_Init
                   _Global_Interrupt
                           _SPI_Init
                       _Systick_Init
                          _UART_Init
 ---------------------------------------------------------------------------------
 (2) _UART_Init                                           18    14      4     595
                                              9 COMMON     2     2      0
                                              6 BANK0     16    12      4
                            ___aldiv
 ---------------------------------------------------------------------------------
 (3) ___aldiv                                             15     7      8     452
                                              0 COMMON     9     1      8
                                              0 BANK0      6     6      0
 ---------------------------------------------------------------------------------
 (2) _Systick_Init                                         0     0      0       0
 ---------------------------------------------------------------------------------
 (2) _SPI_Init                                             0     0      0       0
 ---------------------------------------------------------------------------------
 (2) _Global_Interrupt                                     0     0      0       0
 ---------------------------------------------------------------------------------
 (2) _GPIO_Init                                            0     0      0       0
 ---------------------------------------------------------------------------------
 Estimated maximum stack depth 7
 ---------------------------------------------------------------------------------

 Call Graph Graphs:

 _main (ROOT)
   _PIC16F883_SI4463_INIT
     _GPIO_Init
     _Global_Interrupt
     _SPI_Init
     _Systick_Init
     _UART_Init
       ___aldiv
   _sprintf
     ___lwdiv
     ___lwmod
       ___lwdiv (ARG)
   _vRadio_Init
     _si446x_configuration_init
       _radio_comm_SendCmdGetResp
         _radio_comm_GetResp
           _radio_hal_ClearNsel
           _radio_hal_SetNsel
           _radio_hal_SpiReadByte
             _SPI_Read
           _radio_hal_SpiReadData
             _SPI_Read
           _radio_hal_SpiWriteByte
             _SPI_Write
         _radio_comm_SendCmd
           _radio_comm_PollCTS
             _radio_comm_GetResp
           _radio_hal_ClearNsel
           _radio_hal_SetNsel
           _radio_hal_SpiWriteData
             _SPI_Write
       _radio_hal_NirqLevel
       _si446x_get_int_status
         _radio_comm_SendCmdGetResp
     _si446x_get_int_status
     _vRadio_PowerUp
       _si446x_reset
         _radio_comm_ClearCTS
         _radio_hal_AssertShutdown
         _radio_hal_DeassertShutdown
   _vRadio_StartTx_Variable_Packet
     _si446x_change_state
       _radio_comm_SendCmd
     _si446x_fifo_info
       _radio_comm_SendCmdGetResp
     _si446x_get_int_status
     _si446x_start_tx
       _radio_comm_SendCmd
     _si446x_write_tx_fifo
       _radio_comm_WriteData
         _radio_comm_PollCTS
         _radio_hal_ClearNsel
         _radio_hal_SetNsel
         _radio_hal_SpiWriteByte
         _radio_hal_SpiWriteData

 Address spaces:
Name               Size   Autos  Total    Cost      Usage
SFR3                 0      0       0       4        0.0%
BITSFR3              0      0       0       4        0.0%
BANK2               50      0      40       7       80.0%
BITBANK2            50      0       0       6        0.0%
SFR2                 0      0       0       5        0.0%
BITSFR2              0      0       0       5        0.0%
BANK1               50      0      40       5       80.0%
BITBANK1            50      0       0       4        0.0%
SFR1                 0      0       0       2        0.0%
BITSFR1              0      0       0       2        0.0%
BANK0               50     19      3E       3       77.5%
BITBANK0            50      0       0       9        0.0%
SFR0                 0      0       0       1        0.0%
BITSFR0              0      0       0       1        0.0%
COMMON               E      E       E       1      100.0%
BITCOMMON            E      0       0       0        0.0%
CODE                 0      0       0       0        0.0%
DATA                 0      0      CC      10        0.0%
ABS                  0      0      CC       8        0.0%
NULL                 0      0       0       0        0.0%
STACK                0      0       0       2        0.0%
EEDATA             100      0       0       0        0.0%


Microchip Technology PIC Macro Assembler V2.41 build 20230208172133 
Symbol Table                                                                                   Thu May 25 19:07:10 2023

                     radio_comm_WriteData@cmd 007C                                             pc 0002  
                                 _SSPSTATbits 0094                                            l52 0E50  
                                          l55 0E56                                            l64 0E77  
                                          l67 0E80             radio_comm_SendCmdGetResp@pCmdData 0042  
                                          fsr 0004                                  ?_vRadio_Init 0070  
                                         l100 0E2B                                           l103 0791  
                                         l112 0E0A                                           l106 0EA8  
                                         l115 0EF0                                           l203 07CD  
                                         l204 07CD                                           l109 0E26  
                                         l213 0F0C                                           l230 0E42  
                                         l207 07D8                                           l233 0E19  
                                         l153 07FD                                           l162 00A8  
                                         l227 0FA2                                           l236 0E92  
                                         l252 0E21                                           l324 00FE  
                                         l156 0086                                           l261 0E36  
                                         l333 0728                                           l255 0E11  
                                         l264 0E3C                                           l352 0F79  
                                         l273 0F2E                                           l249 0E1D  
                                         l258 0E15                                           l370 0ED6  
                                         l346 0EBE                                           l178 0FCD  
                                         l267 0E30                                           l364 0E71  
                                         l373 0E63                                           l279 0F51  
                                         l561 0633                                           l571 06BB  
                                         l492 061E                                           l768 006C  
                                         l778 00E2                                           _RB0 0030  
                                         _RB1 0031                                           _RA5 002D  
                         _pRadioConfiguration 005B                                           u900 066A  
                                         u820 00EF                                           u901 0669  
                                         u821 00EE                                           u830 00FB  
                                         u831 00FA                                           u920 0685  
                                         u921 0684                                           u915 066C  
                                         u940 06A3                                           u860 0626  
                                         u941 06A2                                           u925 0681  
                                         u861 0625                                           u950 06A8  
                                         u870 0637                                           u951 06A7  
                                         u935 0695                                           u871 0636  
                                         u880 0656                                           u960 0739  
                                         u881 0655                                           u970 0752  
                                         u981 0764                                           u965 0734  
                                         u982 0765                                           u990 07FD  
                                         u895 065B                                           u983 076A  
                                         u975 074D                                           u991 07FC  
                                         u984 076B                                           u985 0770  
                                         u986 0771                                           u995 07F9  
                                         fsr0 0004                                           indf 0000  
                     __end_of_si446x_start_tx 0EBF                       ??_PIC16F883_SI4463_INIT 007B  
              radio_hal_SpiReadData@byteCount 0074                                          l2040 0029  
                                        l2050 003F                                          l2042 002B  
                                        l2060 0062                                          l2052 0043  
                                        l2044 0031                                          l2054 0054  
                                        l2046 0034                                          l2062 0068  
                                        l2070 00B2                                          l2056 005A  
                                        l2048 003B                                          l2080 00D1  
                                        l2072 00B9                                          l2090 0EDA  
                                        l2058 005B                                          l2082 00D8  
                                        l2074 00BD                                          l2066 00A9  
                                        l2410 0E0E                                          l2402 0E4C  
                                        l2092 0EE7                                          l2076 00C1  
                                        l2068 00AF                                          l2084 00DE  
                                        l2404 0E73                                          l2420 0F33  
                                        l2412 0E38                                          l2500 0F6D  
                                        l2094 0EEA                                          l2078 00CB  
                                        l2406 0E7D                                          l2414 0E2C  
                                        l2422 0F3E                                          l2430 0794  
                                        l2510 0F77                                          l2502 0F6F  
                                        l2096 0EED                                          l2088 0ED7  
                                        l2424 0F44                                          l2440 07A9  
                                        l2432 0799                                          l2504 0F71  
                                        l2600 006D                                          l2520 0F8D  
                                        l2512 0F7B                                          l2610 0544  
                                        l2426 0E12                                          l2418 0F30  
                                        l2442 07AE                                          l2434 079C  
                                        l2450 07C1                                          l2506 0F73  
                                        l2530 06BC                                          l1810 0E1A  
                                        l2602 0071                                          l2522 0F90  
                                        l1900 066A                                          l2612 0547  
                                        l2452 07C7                                          l2444 07B4  
                                        l2436 07A0                                          l2428 0793  
                                        l2508 0F75                                          l2532 06BD  
                                        l1804 0E16                                          l1812 0E1E  
                                        l2604 0077                                          l2524 0F94  
                                        l2516 0F83                                          l2700 0FE1  
                                        l1910 069D                                          l1902 0673  
                                        l2630 0589                                          l2622 0558  
                                        l2614 054D                                          l2454 07CE  
                                        l2446 07B8                                          l2438 07A4  
                                        l2462 0E3D                                          l2470 0F1B  
                                        l2550 06ED                                          l2542 06D3  
                                        l2534 06C5                                          l1822 00E8  
                                        l1814 00E3                                          l2526 0F9C  
                                        l2518 0F86                                          l2702 0FE4  
                                        l1920 0E27                                          l1904 0685  
                                        l1912 06A3                                          l2640 0594  
                                        l2632 058D                                          l2624 0579  
                                        l2616 0552                                          l2456 07D3  
                                        l2448 07BB                                          l2472 0F21  
                                        l2480 0EFD                                          l2560 070A  
                                        l2552 06F3                                          l2544 06D5  
                                        l2536 06CB                                          l1832 00F4  
                                        l1824 00EF                                          l1816 00E6  
                                        l2608 00A0                                          l2528 0F9F  
                                        l2704 0FEE                                          l1914 06A8  
                                        l1906 0693                                          l1930 0786  
                                        l1922 0729                                          l2650 05C0  
                                        l2634 0592                                          l2626 0581  
                                        l2618 0557                                          l2458 07D7  
                                        l2466 0F0E                                          l2482 0F00  
                                        l2474 0EF2                                          l2570 0727  
                                        l2562 0712                                          l2554 0700  
                                        l2546 06E3                                          l2538 06D1  
                                        l1834 00FB                                          l1826 00F2  
                                        l1916 06B3                                          l1908 0694  
                                        l1940 078D                                          l1932 0787  
                                        l1924 0780                                          l2660 05F9  
                                        l2652 05C5                                          l2644 05B0  
                                        l2628 0585                                          l2900 056E  
                                        l2468 0F11                                          l2484 0F06  
                                        l2476 0EF3                                          l2492 0F55  
                                        l2548 06E9                                          l2580 0EC6  
                                        l1950 0EA0                                          l1942 0790  
                                        l1934 0788                                          l1926 0783  
                                        l2662 05FD                                          l2654 05C9  
                                        l2646 05B4                                          l2486 0F09  
                                        l2478 0EF6                                          l2494 0F5D  
                                        l2558 0702                                          l2574 0E67  
                                        l2582 0ED0                                          l2590 0EB2  
                                        l1960 0E08                                          l1952 0EA3  
                                        l1944 0E93                                          l1880 0622  
                                        l1936 0789                                          l1928 0785  
                                        l2656 05CC                                          l2648 05BA  
                                        l2664 0606                                          l1856 0E31  
                                        l2488 0E84                                          l2496 0F67  
                                        l2568 0719                                          l2576 0E6B  
                                        l2584 0ED4                                          l2592 0EB4  
                                        l1954 0EA4                                          l1946 0E99  
                                        l1890 064E                                          l1882 0626  
                                        l1938 078C                                          l2658 05F4  
                                        l2666 061A                                          l2498 0F6B  
                                        l1962 07D9                                          l2578 0EC2  
                                        l2594 0EB6                                          l2586 0E58  
                                        l2674 0FA6                                          l1956 0EA7  
                                        l1948 0E9F                                          l1892 0656  
                                        l1884 0637                                          l1964 07DB  
                                        l2596 0EB7                                          l2588 0EAC  
                                        l1958 0E22                                          l1894 0659  
                                        l1886 0642                                          l1878 061F  
                                        l1966 07DF                                          l2598 0EB8  
                                        l2694 0FCE                                          l1896 0662  
                                        l1888 0646                                          l1968 07E5  
                                        l2696 0FD1                                          l1898 0666  
                                        l2698 0FD4                                          STR_1 052D  
                                        u1100 0054                                          u1101 0053  
                                        u1120 0068                                          u1121 0067  
                                        u1105 0050                                          u1130 00AF  
                                        u1115 005C                                          u1131 00AE  
                                        u1060 0031                                          u1061 0030  
                                        u1150 00C1                                          u1151 00C0  
                                        u1080 0043                                          u1160 00CB  
                                        u1400 0E56                                          u1081 0042  
                                        u1161 00CA                                          u1145 00B3  
                                        u1401 0E55                                          u1410 0E7D  
                                        u1075 0035                                          u1411 0E7C  
                                        u1180 00DE                                          u1420 0F51  
                                        u1500 0F82                                          u1181 00DD  
                                        u1165 00C7                                          u1421 0F50  
                                        u1501 0F81                                          u1430 07A9  
                                        u1510 0F8D                                          u1095 0044  
                                        u1175 00D2                                          u1431 07A8  
                                        u1511 0F8C                                          u1600 054D  
                                        u1440 07AE                                          u1520 06D1  
                                        u1601 054C                                          u1425 0F4D  
                                        u1441 07AD                                          u1521 06D0  
                                        u1610 0589                                          u1450 07C7  
                                        u1530 06F3                                          u1611 0588  
                                        u1451 07C6                                          u1531 06F2  
                                        u1620 05AF                                          u1460 07CD  
                                        u1540 0700                                          u1621 05AE  
                                        u1461 07CC                                          u1541 06FF  
                                        u1630 05BA                                          u1470 07D3  
                                        u1550 070A                                          u1631 05B9  
                                        u1471 07D2                                          u1551 0709  
                                        u1640 05C0                                          u1480 0F2E  
                                        u1560 0718                                          u1641 05BF  
                                        u1625 05AB                                          u1481 0F2D  
                                        u1561 0717                                          u1650 0606  
                                        u1490 0EFD                                          u1570 0727  
                                        u1651 0605                                          u1491 0EFC  
                                        u1571 0726                                          u1660 061A  
                                        u1580 0085                                          u1661 0619  
                                        u1485 0F2A                                          u1581 0084  
                                        u1590 00A0                                          u1591 009F  
                                        u1787 0FF6                                          _TXIF 0064  
                                        _main 0FCE                                          btemp 007E  
                      __end_of_vRadio_PowerUp 07FE                                          start 0004  
                 ?_radio_hal_DeassertShutdown 0070              si446x_get_int_status@PH_CLR_PEND 0048  
                             __end_of___aldiv 06BC                                         ?_main 0070  
                             __end_of___lwdiv 006D                               __end_of___lwmod 00E3  
                 __end_of_radio_comm_ClearCTS 0E1A                                         _SPBRG 0099  
       radio_comm_SendCmdGetResp@cmdByteCount 0045                                         _TXREG 0019  
           __end_of_radio_comm_SendCmdGetResp 0E93                      si446x_start_tx@CONDITION 0042  
                             __end_of_dpowers 011C                              __end_of_SPI_Init 0EA9  
                            __end_of_SPI_Read 0E81              __end_of_radio_hal_AssertShutdown 0E1E  
       vRadio_StartTx_Variable_Packet@channel 004D                                  _si446x_reset 00E3  
                                       pclath 000A                                         status 0003  
                                       wtemp0 007E                               __end_of_sprintf 061F  
                           vRadio_Init@wDelay 004F                   radio_comm_GetResp@byteCount 0078  
                             ?_vRadio_PowerUp 0070                                  SPI_Read@data 0070  
                             __initialization 0006                                  __end_of_main 1000  
                     ??_radio_hal_SpiReadData 0072                       ??_radio_hal_SpiReadByte 0071  
                                      ??_main 0058                             __end_of_GPIO_Init 0E27  
                     radio_comm_SendCmd@pData 007C             __end_of_si446x_configuration_init 0729  
                            ?_si446x_start_tx 0042                                        _OSCCON 008F  
                                      _SSPBUF 0013                                  _Systick_Init 0E27  
                          _customRadioPacket2 0120                             __end_of_UART_Init 0792  
                                   ??___aldiv 0078                                     ??___lwdiv 0074  
                                   ??___lwmod 007B              ??_vRadio_StartTx_Variable_Packet 004B  
             ?_vRadio_StartTx_Variable_Packet 0049            si446x_get_int_status@CHIP_CLR_PEND 0047  
                           __end_of_SPI_Write 0E57                      __end_of_Global_Interrupt 0E0B  
                 radio_comm_SendCmd@byteCount 007D                         _si446x_get_int_status 0F52  
                                   ??_sprintf 0046                   si446x_write_tx_fifo@pTxData 0045  
                     __end_of__initialization 0026                             ?_si446x_fifo_info 0070  
                          ??_si446x_fifo_info 007E                                __pcstackCOMMON 0070  
                 __end_of_si446x_change_state 0E72                                  __pidataBANK0 0E0B  
                       si446x_start_tx@TX_LEN 0043                     ?_radio_hal_AssertShutdown 0070  
                                   ?_SPI_Init 0070                                     ?_SPI_Read 0070  
                __end_of_radio_comm_WriteData 0FA3                        radio_hal_SpiReadData@i 0075  
      __end_of_Radio_Configuration_Data_Array 04E6                _Radio_Configuration_Data_Array 011C  
                                  __pbssBANK0 0020                                    __pbssBANK1 00A0  
                                  __pbssBANK2 0120                 __end_of_PIC16F883_SI4463_INIT 0EF1  
                                  __pmaintext 0FCE                      ??_radio_hal_SpiWriteData 0072  
                    ??_radio_hal_SpiWriteByte 0071                                    ??_SPI_Init 0070  
                                  ??_SPI_Read 0070                             _radio_hal_SetNsel 0E12  
                      ?_si446x_get_int_status 0046                            ?_radio_hal_SetNsel 0070  
                         _radio_hal_ClearNsel 0E0E                                    __stringtab 0100  
                            ??_vRadio_PowerUp 0071                           ??_radio_hal_SetNsel 0070  
                                     _Pro2Cmd 0032                                 SPI_Write@data 0070  
                        ?_radio_hal_ClearNsel 0070                                       ___aldiv 061F  
                                     ___lwdiv 0029                                       ___lwmod 00A9  
               __end_of_radio_hal_SpiReadData 0F52                 __end_of_radio_hal_SpiReadByte 0E31  
                   __end_of_radio_hal_SetNsel 0E16                  __end_of_si446x_write_tx_fifo 0E64  
                                     __ptext1 0FA3                                       __ptext2 0E57  
                                     __ptext3 0F7A                                       __ptext4 0EA9  
                                     __ptext5 0EBF                                       __ptext6 0E64  
                                     __ptext7 006D                                       __ptext8 07D9  
                                     __ptext9 00E3                           _radio_hal_NirqLevel 0E31  
                                     _dpowers 0112                              ___aldiv@dividend 0074  
                  ?_radio_comm_SendCmdGetResp 0042                                       _sprintf 0541  
                                     clrloop0 0E44                                     _GPIO_Init 0E22  
                        end_of_initialization 0026           si446x_get_int_status@MODEM_CLR_PEND 0046  
                        ?_radio_hal_NirqLevel 0070                         ??_radio_hal_ClearNsel 0070  
                        _radio_comm_WriteData 0F7A                                     _RCSTAbits 0018  
                     radio_comm_GetResp@pData 0077                              ___aldiv@quotient 0044  
                                __pstringtext 0100                                     _UART_Init 0729  
vRadio_StartTx_Variable_Packet@pioRadioPacket 0049                si446x_change_state@NEXT_STATE1 0042  
                           ?_Global_Interrupt 0070                                     _TRISAbits 0085  
                                   _TRISBbits 0086                                     _TRISCbits 0087  
                                   _Si446xCmd 0020                    ?_si446x_configuration_init 0049  
                          ??_Global_Interrupt 0070                         si446x_reset@loopCount 0070  
                                   _SPI_Write 0E4B                                    ?_GPIO_Init 0070  
                si446x_write_tx_fifo@numBytes 007D                        si446x_start_tx@CHANNEL 0045  
                       ??_radio_hal_NirqLevel 0070                                     _TXSTAbits 0098  
                       ?_radio_comm_WriteData 0042                          vRadio_PowerUp@wDelay 0073  
        si446x_configuration_init@pSetPropCmd 0049                           _Radio_ChannelNumber 005D  
                               ??_vRadio_Init 004D                                    ?_UART_Init 0048  
                si446x_configuration_init@col 004B                    __end_of_radio_comm_GetResp 07D9  
               radio_comm_WriteData@byteCount 0043                    __end_of_radio_comm_SendCmd 0F0D  
        vRadio_StartTx_Variable_Packet@length 004A                    __end_of_radio_comm_PollCTS 0E43  
                         start_initialization 0006                    radio_hal_SpiReadData@pData 0071  
                                  ?_SPI_Write 0070           si446x_configuration_init@numOfBytes 004C  
                      _radio_hal_SpiWriteData 0F0D                        _radio_hal_SpiWriteByte 0E37  
                            _uartDataReceived 0031                          _si446x_write_tx_fifo 0E57  
                           _customRadioPacket 00A0                     radio_comm_WriteData@pData 0044  
                        si446x_fifo_info@FIFO 0046                   radio_comm_WriteData@pollCts 0042  
                                 __pdataBANK0 005B                  ??_radio_hal_DeassertShutdown 0070  
                 radio_hal_SpiWriteData@pData 0071                       ??_si446x_get_int_status 007E  
                                   ___latbits 0001                           __end_of_vRadio_Init 00A9  
                               __pcstackBANK0 0042                                   ??_GPIO_Init 0070  
                               ?_si446x_reset 0070                                   sprintf@flag 004B  
                       ?_si446x_write_tx_fifo 0045            radio_comm_SendCmdGetResp@pRespData 0044  
                                 sprintf@prec 004C                         _PIC16F883_SI4463_INIT 0ED7  
                      ??_radio_comm_WriteData 007C                              ___lwdiv@dividend 0072  
                    _radio_hal_AssertShutdown 0E1A                             ??_si446x_start_tx 007E  
                                    ?___aldiv 0070                                      ?___lwdiv 0070  
                                    ?___lwmod 0077                           _radio_comm_ClearCTS 0E16  
                                 ??_UART_Init 004C                                   ??_SPI_Write 0070  
                  __end_of_RadioConfiguration 052D                              ___lwdiv@quotient 0074  
                                    ?_sprintf 0042                                ??_si446x_reset 0070  
                 ??_radio_comm_SendCmdGetResp 007E                                    UART_Init@x 0079  
                        ?_radio_comm_ClearCTS 0070                               ___aldiv@divisor 0070  
                             ___aldiv@counter 0042                                 ?_Systick_Init 0070  
                                   clear_ram0 0E43                                      _PIE1bits 008C  
                           UART_Init@baudrate 0048                                   _vRadio_Init 006D  
                                    _SPI_Init 0E93                                      _SPI_Read 0E72  
                            _si446x_fifo_info 0EBF                                   __stringbase 0112  
                       _radio_hal_SpiReadData 0F2F                         _radio_hal_SpiReadByte 0E2C  
                                 _ctsWentHigh 0030             radio_hal_SpiWriteByte@byteToWrite 0071  
                 ??_si446x_configuration_init 007E                         ??_radio_comm_ClearCTS 0070  
                      ??_si446x_write_tx_fifo 007D                                ??_Systick_Init 0070  
                      ?_PIC16F883_SI4463_INIT 0070                   __end_of_radio_hal_ClearNsel 0E12  
                   _radio_comm_SendCmdGetResp 0E81            __end_of_radio_hal_DeassertShutdown 0E22  
                  _radio_hal_DeassertShutdown 0E1E                            __end_of__stringtab 0112  
             radio_hal_SpiWriteData@byteCount 0074                                    sprintf@val 004D  
                             ___lwdiv@divisor 0070                       ?_radio_hal_SpiWriteData 0071  
                             ___lwdiv@counter 0076                       ?_radio_hal_SpiWriteByte 0070  
                                    __ptext10 0E1E                                      __ptext11 0E1A  
                                    __ptext20 0E37                                      __ptext12 0E16  
                                    __ptext21 0E4B                                      __ptext13 06BC  
                                    __ptext30 0029                                      __ptext22 0F2F  
                                    __ptext14 0F52                                      __ptext31 0ED7  
                                    __ptext23 0E2C                                      __ptext15 0E81  
                                    __ptext32 0729                                      __ptext24 0E72  
                                    __ptext16 0EF1                                      __ptext33 061F  
                                    __ptext25 0E12                                      __ptext17 0F0D  
                                    __ptext34 0E27                                      __ptext26 0E0E  
                                    __ptext18 0E3D                                      __ptext35 0E93  
                                    __ptext27 0E31                                      __ptext19 0792  
                                    __ptext36 0E08                                      __ptext28 0541  
                                    __ptext37 0E22                                      __ptext29 00A9  
                 __end_of_radio_hal_NirqLevel 0E37                            _radio_comm_GetResp 0792  
                          _radio_comm_SendCmd 0EF1                            _radio_comm_PollCTS 0E3D  
                         _si446x_change_state 0E64                           ?_radio_comm_GetResp 0077  
                   _si446x_configuration_init 06BC                           ?_radio_comm_SendCmd 007C  
                         ?_radio_comm_PollCTS 0070                          __end_of_si446x_reset 00FF  
                     radio_hal_SpiWriteData@i 0075                        ?_radio_hal_SpiReadData 0071  
                      ?_radio_hal_SpiReadByte 0070                          ?_si446x_change_state 0070  
                        ??_radio_comm_GetResp 0078                 __end_of_si446x_get_int_status 0F7A  
                                  _INTCONbits 000B                __end_of_radio_hal_SpiWriteData 0F2F  
              __end_of_radio_hal_SpiWriteByte 0E3D                          ??_radio_comm_SendCmd 007D  
                        ??_radio_comm_PollCTS 007C                                     sprintf@ap 004A  
                                   sprintf@sp 004F                               _si446x_start_tx 0EA9  
                  ??_radio_hal_AssertShutdown 0070                              ___lwmod@dividend 0079  
      __end_of_vRadio_StartTx_Variable_Packet 0FCE                _vRadio_StartTx_Variable_Packet 0FA3  
                                   stringcode 010A                      radio_comm_GetResp@errCnt 0079  
                    radio_comm_GetResp@ctsVal 007B                         ??_si446x_change_state 007E  
                        __end_of_Systick_Init 0E2C                                      sprintf@c 0050  
                                    sprintf@f 0042                               ___lwmod@divisor 0077  
                             ___lwmod@counter 007B        radio_comm_SendCmdGetResp@respByteCount 0043  
                                    stringtab 0100                                  ___aldiv@sign 0043  
                    __end_of_si446x_fifo_info 0ED7                              _Global_Interrupt 0E08  
                                  _SSPCONbits 0014                            _RadioConfiguration 04E6  
                              _vRadio_PowerUp 07D9  
